(dp0
S'cookies'
p1
(dp2
S'wxloadtime'
p3
S'1495725821'
p4
sS'webwx_data_ticket'
p5
S'gSdHIbDmpCTm4TXgAtvJAgKG'
p6
sS'wxuin'
p7
S'3413407412'
p8
sS'login_frequency'
p9
S'2'
p10
sS'MM_WX_NOTIFY_STATE'
p11
S'1'
p12
sS'MM_WX_SOUND_STATE'
p13
g12
sS'webwx_auth_ticket'
p14
S'CIsBEKTo8k0agAEHF0a2c+kHsu7YTWEYKm7Z4EWYQ+ZwViSHpQ19USZE2ayI0D6RYpNFiw7otngRXpINOJ9uMy2fMSxzo/NexsIjwifUrUZcQ5D7pze/SpUUNrJXhwFHcFAm4/T/HaC0miC8f8i3UvwhjsIgUFh+xDrf3K8/0GtzbEU2ezR3/IfI4g=='
p15
sS'last_wxuin'
p16
S'3413407412'
p17
sS'webwxuvid'
p18
S'0ad038a387f4269064e4a4417f4f53eca82bd5545d29dfc99816888281721ecefbc4571d5b4bd967c10adcd145281195'
p19
sS'wxpluginkey'
p20
S'1495519646'
p21
sS'wxsid'
p22
S'aNaZZy9sACkcaHHu'
p23
sS'mm_lang'
p24
S'zh_CN'
p25
ssS'version'
p26
S'1.3.5'
p27
sS'storage'
p28
(dp29
S'userName'
p30
V@0597541c398f6f32f8ec1a053a495100aa52fa3c599f7bc1a8809000729751a2
p31
sS'lastInputUserName'
p32
NsS'memberList'
p33
ccopy_reg
_reconstructor
p34
(cchatcore.storage.templates
ContactList
p35
c__builtin__
list
p36
(lp37
g34
(cchatcore.storage.templates
User
p38
c__builtin__
dict
p39
(dp40
S'UserName'
p41
g31
sS'City'
p42
S''
p43
sS'DisplayName'
p44
g43
sS'UniFriend'
p45
I0
sS'OwnerUin'
p46
I0
sS'MemberList'
p47
g34
(g35
g36
(lp48
tp49
Rp50
I1
bsS'PYQuanPin'
p51
V
p52
sS'RemarkPYInitial'
p53
g52
sS'Uin'
p54
I3413407412
sS'AppAccountFlag'
p55
I0
sS'VerifyFlag'
p56
I0
sS'Province'
p57
g43
sS'KeyWord'
p58
g43
sS'RemarkName'
p59
g52
sS'PYInitial'
p60
g52
sS'ChatRoomId'
p61
I0
sS'HideInputBarFlag'
p62
I0
sVHeadImgFlag
p63
I1
sS'EncryChatRoomId'
p64
g43
sS'AttrStatus'
p65
I0
sS'SnsFlag'
p66
I0
sS'MemberCount'
p67
I0
sVWebWxPluginSwitch
p68
I0
sS'Alias'
p69
g43
sS'Signature'
p70
g52
sS'ContactFlag'
p71
I0
sS'NickName'
p72
VAran
p73
sS'RemarkPYQuanPin'
p74
g52
sS'HeadImgUrl'
p75
V/cgi-bin/mmwebwx-bin/webwxgeticon?seq=700546143&username=@0597541c398f6f32f8ec1a053a495100aa52fa3c599f7bc1a8809000729751a2&skey=@crypt_bda10ae4_25c3ef42e5c394a31962c340bb935439
p76
sS'Sex'
p77
I1
sS'StarFriend'
p78
I0
sS'Statues'
p79
I0
stp80
Rp81
I1
bag34
(g38
g39
(dp82
VUserName
p83
V@44abec7b68d9a7e11ef876a6b8666a952ad774093766c132bb63e8b651daf600
p84
sVCity
p85
V\u4e1c\u57ce
p86
sVSnsFlag
p87
I49
sVDisplayName
p88
g52
sVUniFriend
p89
I0
sVMemberCount
p90
I0
sVOwnerUin
p91
I0
sVMemberList
p92
g50
sVAlias
p93
g52
sVPYQuanPin
p94
VYat3s
p95
sVSignature
p96
V\u4e00\u53ea\u7231\u73a9\u7684\u7a0b\u5e8f\u6c6a<span class="emoji emoji1f436"></span>
p97
sVRemarkPYInitial
p98
g52
sVContactFlag
p99
I3
sVUin
p100
I0
sVNickName
p101
VYat3s
p102
sVAppAccountFlag
p103
I0
sVVerifyFlag
p104
I0
sVRemarkPYQuanPin
p105
g52
sVHeadImgUrl
p106
V/cgi-bin/mmwebwx-bin/webwxgeticon?seq=603850332&username=@44abec7b68d9a7e11ef876a6b8666a952ad774093766c132bb63e8b651daf600&skey=@crypt_bda10ae4_25c3ef42e5c394a31962c340bb935439
p107
sVKeyWord
p108
g52
sVProvince
p109
V\u5317\u4eac
p110
sVPYInitial
p111
VYAT3S
p112
sVRemarkName
p113
g52
sVIsOwner
p114
I0
sVSex
p115
I1
sVStarFriend
p116
I0
sVHideInputBarFlag
p117
I0
sVChatRoomId
p118
I0
sVEncryChatRoomId
p119
g52
sVAttrStatus
p120
I37851239
sVStatues
p121
I0
stp122
Rp123
I1
bag34
(g38
g39
(dp124
VUserName
p125
V@02b967be3c52c648f94caae5100967cb
p126
sVCity
p127
V\u8475\u9752\u533a
p128
sVSnsFlag
p129
I49
sVDisplayName
p130
g52
sVUniFriend
p131
I0
sVMemberCount
p132
I0
sVOwnerUin
p133
I0
sVMemberList
p134
g50
sVAlias
p135
g52
sVPYQuanPin
p136
Vspanclassemojiemoji1f335spanyezhier
p137
sVSignature
p138
V\u65f6\u5149\u6f2b\u957f\uff0c\u6709\u6211\u522b\u614c\u3002<span class="emoji emoji1f618"></span>
p139
sVRemarkPYInitial
p140
g52
sVContactFlag
p141
I3
sVUin
p142
I0
sVNickName
p143
V\U0001f335\u6930\u6c41\u513f
p144
sVAppAccountFlag
p145
I0
sVVerifyFlag
p146
I0
sVRemarkPYQuanPin
p147
g52
sVHeadImgUrl
p148
V/cgi-bin/mmwebwx-bin/webwxgeticon?seq=603850968&username=@02b967be3c52c648f94caae5100967cb&skey=@crypt_bda10ae4_25c3ef42e5c394a31962c340bb935439
p149
sVKeyWord
p150
Vyev
p151
sVProvince
p152
V\u9999\u6e2f
p153
sVPYInitial
p154
VSPANCLASSEMOJIEMOJI1F335SPANYZE
p155
sVRemarkName
p156
g52
sVIsOwner
p157
I0
sVSex
p158
I2
sVStarFriend
p159
I0
sVHideInputBarFlag
p160
I0
sVChatRoomId
p161
I0
sVEncryChatRoomId
p162
g52
sVAttrStatus
p163
I67623
sVStatues
p164
I0
stp165
Rp166
I1
bag34
(g38
g39
(dp167
VUserName
p168
V@3c2268af676a0696c21027d6848a989ddc89005a3ecd7dafdcba838b15e433b5
p169
sVCity
p170
g52
sVSnsFlag
p171
I17
sVDisplayName
p172
g52
sVUniFriend
p173
I0
sVMemberCount
p174
I0
sVOwnerUin
p175
I0
sVMemberList
p176
g50
sVAlias
p177
g52
sVPYQuanPin
p178
Vxiaodeqiu
p179
sVSignature
p180
V\u5b66\u800c\u4e0d\u601d\u5219\u7f54\uff0c\u54c8\u54c8
p181
sVRemarkPYInitial
p182
g52
sVContactFlag
p183
I3
sVUin
p184
I0
sVNickName
p185
V\u5c0f\u5730\u7403
p186
sVAppAccountFlag
p187
I0
sVVerifyFlag
p188
I0
sVRemarkPYQuanPin
p189
g52
sVHeadImgUrl
p190
V/cgi-bin/mmwebwx-bin/webwxgeticon?seq=603851078&username=@3c2268af676a0696c21027d6848a989ddc89005a3ecd7dafdcba838b15e433b5&skey=@crypt_bda10ae4_25c3ef42e5c394a31962c340bb935439
p191
sVKeyWord
p192
g52
sVProvince
p193
VFrankfurt
p194
sVPYInitial
p195
VXDQ
p196
sVRemarkName
p197
g52
sVIsOwner
p198
I0
sVSex
p199
I1
sVStarFriend
p200
I0
sVHideInputBarFlag
p201
I0
sVChatRoomId
p202
I0
sVEncryChatRoomId
p203
g52
sVAttrStatus
p204
I33789989
sVStatues
p205
I0
stp206
Rp207
I1
bag34
(g38
g39
(dp208
VUserName
p209
V@3bb2b9fff85fa40f3c329aa62cd12cb5dc5bd2eeb261a4c795d5e61a2c6a5573
p210
sVCity
p211
g52
sVSnsFlag
p212
I17
sVDisplayName
p213
g52
sVUniFriend
p214
I0
sVMemberCount
p215
I0
sVOwnerUin
p216
I0
sVMemberList
p217
g50
sVAlias
p218
g52
sVPYQuanPin
p219
Vmeiguishilichunfeng
p220
sVSignature
p221
V\u800c\u4eca\u6811\u58ee\u5fd7        \u4ee5\u5f85\u626c\u56fd\u5a01
p222
sVRemarkPYInitial
p223
g52
sVContactFlag
p224
I3
sVUin
p225
I0
sVNickName
p226
V[\u73ab\u7470]\u5341\u91cc\u6625\u98ce
p227
sVAppAccountFlag
p228
I0
sVVerifyFlag
p229
I0
sVRemarkPYQuanPin
p230
g52
sVHeadImgUrl
p231
V/cgi-bin/mmwebwx-bin/webwxgeticon?seq=603852839&username=@3bb2b9fff85fa40f3c329aa62cd12cb5dc5bd2eeb261a4c795d5e61a2c6a5573&skey=@crypt_bda10ae4_25c3ef42e5c394a31962c340bb935439
p232
sVKeyWord
p233
g52
sVProvince
p234
VParis
p235
sVPYInitial
p236
VMGSLCF
p237
sVRemarkName
p238
g52
sVIsOwner
p239
I0
sVSex
p240
I1
sVStarFriend
p241
I0
sVHideInputBarFlag
p242
I0
sVChatRoomId
p243
I0
sVEncryChatRoomId
p244
g52
sVAttrStatus
p245
I102439
sVStatues
p246
I0
stp247
Rp248
I1
bag34
(g38
g39
(dp249
VUserName
p250
V@8389c69f43a2507aa70ca8e22b31728cfbbfdca23a73dbee5a70af22510ea16c
p251
sVCity
p252
g52
sVSnsFlag
p253
I49
sVDisplayName
p254
g52
sVUniFriend
p255
I0
sVMemberCount
p256
I0
sVOwnerUin
p257
I0
sVMemberList
p258
g50
sVAlias
p259
g52
sVPYQuanPin
p260
Vechoxiaomeng
p261
sVSignature
p262
V\u65e2\u7136\u7434\u745f\u8d77
p263
sVRemarkPYInitial
p264
g52
sVContactFlag
p265
I3
sVUin
p266
I0
sVNickName
p267
Vecho\u5c0f\u840c
p268
sVAppAccountFlag
p269
I0
sVVerifyFlag
p270
I0
sVRemarkPYQuanPin
p271
g52
sVHeadImgUrl
p272
V/cgi-bin/mmwebwx-bin/webwxgeticon?seq=606873234&username=@8389c69f43a2507aa70ca8e22b31728cfbbfdca23a73dbee5a70af22510ea16c&skey=@crypt_bda10ae4_25c3ef42e5c394a31962c340bb935439
p273
sVKeyWord
p274
g52
sVProvince
p275
V\u5317\u4eac
p276
sVPYInitial
p277
VECHOXM
p278
sVRemarkName
p279
g52
sVIsOwner
p280
I0
sVSex
p281
I2
sVStarFriend
p282
I0
sVHideInputBarFlag
p283
I0
sVChatRoomId
p284
I0
sVEncryChatRoomId
p285
g52
sVAttrStatus
p286
I67224677
sVStatues
p287
I0
stp288
Rp289
I1
bag34
(g38
g39
(dp290
VUserName
p291
V@1a2dd4e560be6b9765b752ac9643a01231e5d65d7283759844d8cc4261bad4ef
p292
sVCity
p293
g52
sVSnsFlag
p294
I49
sVDisplayName
p295
g52
sVUniFriend
p296
I0
sVMemberCount
p297
I0
sVOwnerUin
p298
I0
sVMemberList
p299
g50
sVAlias
p300
g52
sVPYQuanPin
p301
Vluojunyu
p302
sVSignature
p303
V\u5170\u5c3c\u65af\u7279\u6709\u89c9\u5fc5\u7761
p304
sVRemarkPYInitial
p305
g52
sVContactFlag
p306
I3
sVUin
p307
I0
sVNickName
p308
V\u7f57\u4fca\u5b87
p309
sVAppAccountFlag
p310
I0
sVVerifyFlag
p311
I0
sVRemarkPYQuanPin
p312
g52
sVHeadImgUrl
p313
V/cgi-bin/mmwebwx-bin/webwxgeticon?seq=606873331&username=@1a2dd4e560be6b9765b752ac9643a01231e5d65d7283759844d8cc4261bad4ef&skey=@crypt_bda10ae4_25c3ef42e5c394a31962c340bb935439
p314
sVKeyWord
p315
VSil
p316
sVProvince
p317
g52
sVPYInitial
p318
VLJY
p319
sVRemarkName
p320
g52
sVIsOwner
p321
I0
sVSex
p322
I1
sVStarFriend
p323
I0
sVHideInputBarFlag
p324
I0
sVChatRoomId
p325
I0
sVEncryChatRoomId
p326
g52
sVAttrStatus
p327
I106747
sVStatues
p328
I0
stp329
Rp330
I1
bag34
(g38
g39
(dp331
VUserName
p332
V@d64552b1cba2c755a775a0c7d8a729bc2adceff863f10328f0d572cd761c4f5c
p333
sVCity
p334
V\u671d\u9633
p335
sVSnsFlag
p336
I17
sVDisplayName
p337
g52
sVUniFriend
p338
I0
sVMemberCount
p339
I0
sVOwnerUin
p340
I0
sVMemberList
p341
g50
sVAlias
p342
g52
sVPYQuanPin
p343
VKerry
p344
sVSignature
p345
V\u975e\u51e1\u4eba\u975e\u51e1\u4e8b\u5e73\u5e38\u5fc3
p346
sVRemarkPYInitial
p347
g52
sVContactFlag
p348
I3
sVUin
p349
I0
sVNickName
p350
VKerry
p351
sVAppAccountFlag
p352
I0
sVVerifyFlag
p353
I0
sVRemarkPYQuanPin
p354
g52
sVHeadImgUrl
p355
V/cgi-bin/mmwebwx-bin/webwxgeticon?seq=606873504&username=@d64552b1cba2c755a775a0c7d8a729bc2adceff863f10328f0d572cd761c4f5c&skey=@crypt_bda10ae4_25c3ef42e5c394a31962c340bb935439
p356
sVKeyWord
p357
g52
sVProvince
p358
V\u5317\u4eac
p359
sVPYInitial
p360
VKERRY
p361
sVRemarkName
p362
g52
sVIsOwner
p363
I0
sVSex
p364
I2
sVStarFriend
p365
I0
sVHideInputBarFlag
p366
I0
sVChatRoomId
p367
I0
sVEncryChatRoomId
p368
g52
sVAttrStatus
p369
I33674359
sVStatues
p370
I0
stp371
Rp372
I1
bag34
(g38
g39
(dp373
VUserName
p374
V@cc44c790b1eb29071830396931969f0efc567f0dd0edf20c4408874506d8390a
p375
sVCity
p376
g52
sVSnsFlag
p377
I17
sVDisplayName
p378
g52
sVUniFriend
p379
I0
sVMemberCount
p380
I0
sVOwnerUin
p381
I0
sVMemberList
p382
g50
sVAlias
p383
g52
sVPYQuanPin
p384
Vspanclassemojiemoji1f33espancaoyispanclassemojiemoji1f33espan
p385
sVSignature
p386
V\u6709\u82b1\u6709\u6708\u6709\u697c\u53f0 
p387
sVRemarkPYInitial
p388
g52
sVContactFlag
p389
I3
sVUin
p390
I0
sVNickName
p391
V\U0001f33e\u8349\u4e59\U0001f33e
p392
sVAppAccountFlag
p393
I0
sVVerifyFlag
p394
I0
sVRemarkPYQuanPin
p395
g52
sVHeadImgUrl
p396
V/cgi-bin/mmwebwx-bin/webwxgeticon?seq=606873509&username=@cc44c790b1eb29071830396931969f0efc567f0dd0edf20c4408874506d8390a&skey=@crypt_bda10ae4_25c3ef42e5c394a31962c340bb935439
p397
sVKeyWord
p398
g52
sVProvince
p399
g52
sVPYInitial
p400
VSPANCLASSEMOJIEMOJI1F33ESPANCYSPANCLASSEMOJIEMOJI1F33ESPAN
p401
sVRemarkName
p402
g52
sVIsOwner
p403
I0
sVSex
p404
I2
sVStarFriend
p405
I0
sVHideInputBarFlag
p406
I0
sVChatRoomId
p407
I0
sVEncryChatRoomId
p408
g52
sVAttrStatus
p409
I33654821
sVStatues
p410
I0
stp411
Rp412
I1
bag34
(g38
g39
(dp413
VUserName
p414
V@822fd648226d0218abb733314b8995dee07b2367ca2cc191ecc5a4022d2c081b
p415
sVCity
p416
V\u8d63\u5dde
p417
sVSnsFlag
p418
I49
sVDisplayName
p419
g52
sVUniFriend
p420
I0
sVMemberCount
p421
I0
sVOwnerUin
p422
I0
sVMemberList
p423
g50
sVAlias
p424
g52
sVPYQuanPin
p425
Vxiaoliao15807504515
p426
sVSignature
p427
V\u4e0b\u8f88\u5b50\u6295\u80ce\u505a\u4e2a\u7537\u4eba\uff0c\u5a36\u4e2a\u50cf\u6211\u8fd9\u6837\u7684\u5973\u4eba\U0001f64815807504515
p428
sVRemarkPYInitial
p429
VELAINE
p430
sVContactFlag
p431
I3
sVUin
p432
I0
sVNickName
p433
V\u5c0f\u5ed6 15807504515
p434
sVAppAccountFlag
p435
I0
sVVerifyFlag
p436
I0
sVRemarkPYQuanPin
p437
VElaine
p438
sVHeadImgUrl
p439
V/cgi-bin/mmwebwx-bin/webwxgeticon?seq=603850127&username=@822fd648226d0218abb733314b8995dee07b2367ca2cc191ecc5a4022d2c081b&skey=@crypt_bda10ae4_25c3ef42e5c394a31962c340bb935439
p440
sVKeyWord
p441
g52
sVProvince
p442
V\u6c5f\u897f
p443
sVPYInitial
p444
VXL15807504515
p445
sVRemarkName
p446
VElaine
p447
sVIsOwner
p448
I0
sVSex
p449
I2
sVStarFriend
p450
I0
sVHideInputBarFlag
p451
I0
sVChatRoomId
p452
I0
sVEncryChatRoomId
p453
g52
sVAttrStatus
p454
I69669
sVStatues
p455
I0
stp456
Rp457
I1
bag34
(g38
g39
(dp458
VUserName
p459
V@ed4157442cea84a4ca4188223ac7c995
p460
sVCity
p461
V\u671d\u9633
p462
sVSnsFlag
p463
I49
sVDisplayName
p464
g52
sVUniFriend
p465
I0
sVMemberCount
p466
I0
sVOwnerUin
p467
I0
sVMemberList
p468
g50
sVAlias
p469
g52
sVPYQuanPin
p470
Vspanclassemojiemoji1f343span
p471
sVSignature
p472
V<span class="emoji emoji2708"></span>\ufe0f
p473
sVRemarkPYInitial
p474
g52
sVContactFlag
p475
I3
sVUin
p476
I0
sVNickName
p477
V\U0001f343
p478
sVAppAccountFlag
p479
I0
sVVerifyFlag
p480
I0
sVRemarkPYQuanPin
p481
g52
sVHeadImgUrl
p482
V/cgi-bin/mmwebwx-bin/webwxgeticon?seq=606873785&username=@ed4157442cea84a4ca4188223ac7c995&skey=@crypt_bda10ae4_25c3ef42e5c394a31962c340bb935439
p483
sVKeyWord
p484
VYE1
p485
sVProvince
p486
V\u5317\u4eac
p487
sVPYInitial
p488
VSPANCLASSEMOJIEMOJI1F343SPAN
p489
sVRemarkName
p490
g52
sVIsOwner
p491
I0
sVSex
p492
I2
sVStarFriend
p493
I0
sVHideInputBarFlag
p494
I0
sVChatRoomId
p495
I0
sVEncryChatRoomId
p496
g52
sVAttrStatus
p497
I231911
sVStatues
p498
I0
stp499
Rp500
I1
batp501
Rp502
I1
bsS'chatroomList'
p503
g34
(g35
g36
(lp504
g34
(cchatcore.storage.templates
Chatroom
p505
g39
(dp506
VUserName
p507
V@@064b4423948606fbc9de17a2ab33d0cdee11ebe7e630d1b34b436d0eda8767d8
p508
sVCity
p509
g52
sVDisplayName
p510
g52
sVUniFriend
p511
I0
sS'Self'
p512
g34
(g38
g39
(dp513
g41
g31
sg42
g43
sg44
g43
sg45
I0
sg46
I0
sg47
g34
(g35
g36
(lp514
tp515
Rp516
I1
bsg51
g52
sg53
g52
sg54
I3413407412
sg55
I0
sg56
I0
sg57
g43
sg58
g43
sg59
g52
sg60
g52
sg61
I0
sg62
I0
sg63
I1
sg64
g43
sg65
I0
sg66
I0
sg67
I0
sg68
I0
sg69
g43
sg70
g52
sg71
I0
sg72
g73
sg74
g52
sg75
g76
sg77
I1
sg78
I0
sg79
I0
stp517
Rp518
I1
bsVMemberList
p519
g34
(g35
g36
(lp520
tp521
Rp522
I1
bsVPYQuanPin
p523
g52
sVRemarkPYInitial
p524
g52
sVSex
p525
I0
sVAppAccountFlag
p526
I0
sVVerifyFlag
p527
I0
sVProvince
p528
g52
sVKeyWord
p529
g52
sVRemarkName
p530
g52
sVPYInitial
p531
g52
sVIsOwner
p532
I0
sVChatRoomId
p533
I0
sVHideInputBarFlag
p534
I0
sVEncryChatRoomId
p535
g52
sVAttrStatus
p536
I0
sVSnsFlag
p537
I0
sVMemberCount
p538
I7
sVOwnerUin
p539
I0
sVAlias
p540
g52
sS'IsAdmin'
p541
NsVSignature
p542
g52
sVContactFlag
p543
I2
sVNickName
p544
V\u7ea2\u5305\u96e8
p545
sVRemarkPYQuanPin
p546
g52
sVHeadImgUrl
p547
V/cgi-bin/mmwebwx-bin/webwxgetheadimg?seq=606873628&username=@@064b4423948606fbc9de17a2ab33d0cdee11ebe7e630d1b34b436d0eda8767d8&skey=@crypt_bda10ae4_25c3ef42e5c394a31962c340bb935439
p548
sVUin
p549
I0
sVStarFriend
p550
I0
sVStatues
p551
I1
stp552
Rp553
I1
bag34
(g505
g39
(dp554
VUserName
p555
V@@f4c9b4e1a2a37ac6a9d05c5cb516b1ea1b71f61a97fd040265e1d54e0b4ef297
p556
sVCity
p557
g52
sVDisplayName
p558
g52
sVUniFriend
p559
I0
sg512
g34
(g38
g39
(dp560
g41
g31
sg42
g43
sg44
g43
sg45
I0
sg46
I0
sg47
g34
(g35
g36
(lp561
tp562
Rp563
I1
bsg51
g52
sg53
g52
sg54
I3413407412
sg55
I0
sg56
I0
sg57
g43
sg58
g43
sg59
g52
sg60
g52
sg61
I0
sg62
I0
sg63
I1
sg64
g43
sg65
I0
sg66
I0
sg67
I0
sg68
I0
sg69
g43
sg70
g52
sg71
I0
sg72
g73
sg74
g52
sg75
g76
sg77
I1
sg78
I0
sg79
I0
stp564
Rp565
I1
bsVMemberList
p566
g34
(g35
g36
(lp567
tp568
Rp569
I1
bsVPYQuanPin
p570
g52
sVRemarkPYInitial
p571
g52
sVSex
p572
I0
sVAppAccountFlag
p573
I0
sVVerifyFlag
p574
I0
sVProvince
p575
g52
sVKeyWord
p576
g52
sVRemarkName
p577
g52
sVPYInitial
p578
g52
sVIsOwner
p579
I0
sVChatRoomId
p580
I0
sVHideInputBarFlag
p581
I0
sVEncryChatRoomId
p582
g52
sVAttrStatus
p583
I0
sVSnsFlag
p584
I0
sVMemberCount
p585
I10
sVOwnerUin
p586
I0
sVAlias
p587
g52
sg541
NsVSignature
p588
g52
sVContactFlag
p589
I2
sVNickName
p590
Vbdp\u79fb\u52a8\u7ec4
p591
sVRemarkPYQuanPin
p592
g52
sVHeadImgUrl
p593
V/cgi-bin/mmwebwx-bin/webwxgetheadimg?seq=606873761&username=@@f4c9b4e1a2a37ac6a9d05c5cb516b1ea1b71f61a97fd040265e1d54e0b4ef297&skey=@crypt_bda10ae4_25c3ef42e5c394a31962c340bb935439
p594
sVUin
p595
I0
sVStarFriend
p596
I0
sVStatues
p597
I1
stp598
Rp599
I1
bag34
(g505
g39
(dp600
VUserName
p601
V@@a011b8fbaadb31219923122dfbb03484b863b2d0023388bc7c6407f8133c147a
p602
sVCity
p603
g52
sVDisplayName
p604
g52
sVUniFriend
p605
I0
sg512
g34
(g38
g39
(dp606
g41
g31
sg42
g43
sg44
g43
sg45
I0
sg46
I0
sg47
g34
(g35
g36
(lp607
tp608
Rp609
I1
bsg51
g52
sg53
g52
sg54
I3413407412
sg55
I0
sg56
I0
sg57
g43
sg58
g43
sg59
g52
sg60
g52
sg61
I0
sg62
I0
sg63
I1
sg64
g43
sg65
I0
sg66
I0
sg67
I0
sg68
I0
sg69
g43
sg70
g52
sg71
I0
sg72
g73
sg74
g52
sg75
g76
sg77
I1
sg78
I0
sg79
I0
stp610
Rp611
I1
bsVMemberList
p612
g34
(g35
g36
(lp613
tp614
Rp615
I1
bsVPYQuanPin
p616
g52
sVRemarkPYInitial
p617
g52
sVSex
p618
I0
sVAppAccountFlag
p619
I0
sVVerifyFlag
p620
I0
sVProvince
p621
g52
sVKeyWord
p622
g52
sVRemarkName
p623
g52
sVPYInitial
p624
g52
sVIsOwner
p625
I0
sVChatRoomId
p626
I0
sVHideInputBarFlag
p627
I0
sVEncryChatRoomId
p628
g52
sVAttrStatus
p629
I0
sVSnsFlag
p630
I0
sVMemberCount
p631
I10
sVOwnerUin
p632
I0
sVAlias
p633
g52
sg541
NsVSignature
p634
g52
sVContactFlag
p635
I0
sVNickName
p636
V\u5bbe\u679c\u8001\u55e8\uff0c\u5bbe\u679c\u4efd\u4f4e
p637
sVRemarkPYQuanPin
p638
g52
sVHeadImgUrl
p639
V/cgi-bin/mmwebwx-bin/webwxgetheadimg?seq=0&username=@@a011b8fbaadb31219923122dfbb03484b863b2d0023388bc7c6407f8133c147a&skey=@crypt_bda10ae4_25c3ef42e5c394a31962c340bb935439
p640
sVUin
p641
I0
sVStarFriend
p642
I0
sVStatues
p643
I0
stp644
Rp645
I1
batp646
Rp647
I1
bsS'nickName'
p648
g73
sS'mpList'
p649
g34
(g35
g36
(lp650
g34
(cchatcore.storage.templates
MassivePlatform
p651
g39
(dp652
VUserName
p653
V@b5e313e7625f3bf5ae9939aeba082c54
p654
sVCity
p655
V\u5e7f\u5dde
p656
sVSnsFlag
p657
I0
sVDisplayName
p658
g52
sVUniFriend
p659
I0
sVMemberCount
p660
I0
sVOwnerUin
p661
I0
sVMemberList
p662
g50
sVAlias
p663
g52
sVPYQuanPin
p664
Vgongzhongpingtaianquanzhushou
p665
sVSignature
p666
V\u63d0\u4f9b\u5fae\u4fe1\u516c\u4f17\u53f7\u767b\u5f55\u548c\u7fa4\u53d1\u7b49\u5b89\u5168\u64cd\u4f5c\uff0c\u5728\u624b\u673a\u4e0a\u67e5\u6536\u6d88\u606f\u3001\u8bc4\u8bba\u3001\u8d5e\u8d4f\uff0c\u65b0\u5efa\u7fa4\u53d1\u548c\u67e5\u770b\u7fa4\u53d1\u5386\u53f2\u3002
p667
sVRemarkPYInitial
p668
g52
sVContactFlag
p669
I3
sVUin
p670
I0
sVNickName
p671
V\u516c\u4f17\u5e73\u53f0\u5b89\u5168\u52a9\u624b
p672
sVAppAccountFlag
p673
I0
sVVerifyFlag
p674
I24
sVRemarkPYQuanPin
p675
g52
sVHeadImgUrl
p676
V/cgi-bin/mmwebwx-bin/webwxgeticon?seq=600880067&username=@b5e313e7625f3bf5ae9939aeba082c54&skey=@crypt_bda10ae4_25c3ef42e5c394a31962c340bb935439
p677
sVKeyWord
p678
Vmph
p679
sVProvince
p680
V\u5e7f\u4e1c
p681
sVPYInitial
p682
VGZPTAQZS
p683
sVRemarkName
p684
g52
sVIsOwner
p685
I0
sVSex
p686
I0
sVStarFriend
p687
I0
sVHideInputBarFlag
p688
I0
sVChatRoomId
p689
I0
sVEncryChatRoomId
p690
g52
sVAttrStatus
p691
I98459
sVStatues
p692
I0
stp693
Rp694
I1
bag34
(g651
g39
(dp695
VUserName
p696
V@b0bd891295f7c4af7237e0e7cea74bc1
p697
sVCity
p698
V\u897f\u57ce
p699
sVSnsFlag
p700
I0
sVDisplayName
p701
g52
sVUniFriend
p702
I0
sVMemberCount
p703
I0
sVOwnerUin
p704
I0
sVMemberList
p705
g50
sVAlias
p706
g52
sVPYQuanPin
p707
Vzhongguoliantong
p708
sVSignature
p709
V\u4e2d\u56fd\u8054\u901a\u5fae\u4fe1\u8425\u4e1a\u5385\uff0c\u4fbf\u6377\u968f\u8eab\uff0c\u67e5\u8be2\u529e\u7406\u4e00\u952e\u641e\u5b9a\uff0c\u8fd8\u6709\u5ba2\u670dMM\u8d34\u5fc3\u89e3\u5fe7\uff0c\u66f4\u591a\u8d44\u8baf\u63a8\u8350\u4e0e\u60a8\u5206\u4eab\u3002\u656c\u8bf7\u5149\u4e34\uff0c\u671f\u5f85\u60ca\u559c\uff01
p710
sVRemarkPYInitial
p711
g52
sVContactFlag
p712
I3
sVUin
p713
I0
sVNickName
p714
V\u4e2d\u56fd\u8054\u901a
p715
sVAppAccountFlag
p716
I0
sVVerifyFlag
p717
I24
sVRemarkPYQuanPin
p718
g52
sVHeadImgUrl
p719
V/cgi-bin/mmwebwx-bin/webwxgeticon?seq=603850307&username=@b0bd891295f7c4af7237e0e7cea74bc1&skey=@crypt_bda10ae4_25c3ef42e5c394a31962c340bb935439
p720
sVKeyWord
p721
Vgh_
p722
sVProvince
p723
V\u5317\u4eac
p724
sVPYInitial
p725
VZGLT
p726
sVRemarkName
p727
g52
sVIsOwner
p728
I0
sVSex
p729
I0
sVStarFriend
p730
I0
sVHideInputBarFlag
p731
I0
sVChatRoomId
p732
I0
sVEncryChatRoomId
p733
g52
sVAttrStatus
p734
I0
sVStatues
p735
I0
stp736
Rp737
I1
batp738
Rp739
I1
bssS'loginInfo'
p740
(dp741
S'SyncKey'
p742
(dp743
VCount
p744
I4
sVList
p745
(lp746
(dp747
VVal
p748
I606873775
sVKey
p749
I1
sa(dp750
VVal
p751
I606873830
sVKey
p752
I2
sa(dp753
VVal
p754
I606873785
sVKey
p755
I3
sa(dp756
VVal
p757
I1495717921
sVKey
p758
I1000
sassS'syncUrl'
p759
S'https://webpush.wx2.qq.com/cgi-bin/mmwebwx-bin'
p760
sS'skey'
p761
V@crypt_bda10ae4_25c3ef42e5c394a31962c340bb935439
p762
sS'wxuin'
p763
V3413407412
p764
sS'synckey'
p765
S'1_606873775|2_606873830|3_606873785|1000_1495717921'
p766
sS'url'
p767
Vhttps://wx2.qq.com/cgi-bin/mmwebwx-bin
p768
sS'pass_ticket'
p769
V8oNwq9mrbExJi6Z437tmiiyb8yOFFmJSAgkr2dlw7ziHkwfcOiUi4xJz9yHMIcJ9
p770
sS'wxsid'
p771
VaNaZZy9sACkcaHHu
p772
sS'User'
p773
g34
(g38
g39
(dp774
g41
g31
sg42
g43
sg44
g43
sg45
I0
sg47
g50
sg51
g52
sg53
g52
sg77
I1
sg55
I0
sg56
I0
sg57
g43
sg58
g43
sg59
g52
sg60
g52
sg61
I0
sg62
I0
sg63
I1
sg64
g43
sg65
I0
sg68
I0
sg66
I0
sg67
I0
sg46
I0
sg69
g43
sg70
g52
sg71
I0
sg72
g73
sg74
g52
sg75
g76
sg54
I3413407412
sg78
I0
sg79
I0
stp775
Rp776
I1
bsS'InviteStartCount'
p777
I40
sS'fileUrl'
p778
S'https://file.wx2.qq.com/cgi-bin/mmwebwx-bin'
p779
sS'BaseRequest'
p780
(dp781
g54
g764
sS'Skey'
p782
g762
sS'DeviceID'
p783
g770
sS'Sid'
p784
g772
ssS'deviceid'
p785
S'e944444020269885'
p786
ss.