(dp0
S'cookies'
p1
(dp2
S'wxloadtime'
p3
S'1493363660'
p4
sS'webwx_data_ticket'
p5
S'gSdryhG6eYIgGbOLd9L3FSFB'
p6
sS'wxuin'
p7
S'3413407412'
p8
sS'login_frequency'
p9
S'2'
p10
sS'MM_WX_NOTIFY_STATE'
p11
S'1'
p12
sS'MM_WX_SOUND_STATE'
p13
g12
sS'webwx_auth_ticket'
p14
S'CIsBELLs9uUIGoAB/suD8+lG55ibWs3RbXwgN+BFmEPmcFYkh6UNfVEmRNmFOb3logmcgrIDBqK+TxThDpb7/IgPm3o2b6FBHswdgc/ivWsrabBfV68kB0fCk67NA6Zc30t/ts5Gj57SJePmAQga1OlVJ3f5q58df6W37xFN85k+IB4fikaBbsCEJ/E='
p15
sS'last_wxuin'
p16
S'3413407412'
p17
sS'webwxuvid'
p18
S'0ad038a387f4269064e4a4417f4f53ec4ba09bc37f4701209a4da3a50b6aec896a69993b6d7c2be70829c938fc402626'
p19
sS'wxpluginkey'
p20
S'1493361954'
p21
sS'wxsid'
p22
S'HyY+vkyOQoLDGppI'
p23
sS'mm_lang'
p24
S'zh_CN'
p25
ssS'version'
p26
S'1.3.5'
p27
sS'storage'
p28
(dp29
S'userName'
p30
V@8b85371dac939a03e8a6d182b185fb952f180f3d99a67387ae70372974f3413a
p31
sS'lastInputUserName'
p32
NsS'memberList'
p33
ccopy_reg
_reconstructor
p34
(cchatcore.storage.templates
ContactList
p35
c__builtin__
list
p36
(lp37
g34
(cchatcore.storage.templates
User
p38
c__builtin__
dict
p39
(dp40
S'UserName'
p41
g31
sS'City'
p42
S''
p43
sS'DisplayName'
p44
g43
sS'UniFriend'
p45
I0
sS'OwnerUin'
p46
I0
sS'MemberList'
p47
g34
(g35
g36
(lp48
tp49
Rp50
I1
bsS'PYQuanPin'
p51
V
p52
sS'RemarkPYInitial'
p53
g52
sS'Uin'
p54
I3413407412
sS'AppAccountFlag'
p55
I0
sS'VerifyFlag'
p56
I0
sS'Province'
p57
g43
sS'KeyWord'
p58
g43
sS'RemarkName'
p59
g52
sS'PYInitial'
p60
g52
sS'ChatRoomId'
p61
I0
sS'HideInputBarFlag'
p62
I0
sVHeadImgFlag
p63
I1
sS'EncryChatRoomId'
p64
g43
sS'AttrStatus'
p65
I0
sS'SnsFlag'
p66
I0
sS'MemberCount'
p67
I0
sVWebWxPluginSwitch
p68
I0
sS'Alias'
p69
g43
sS'Signature'
p70
g52
sS'ContactFlag'
p71
I0
sS'NickName'
p72
VAran
p73
sS'RemarkPYQuanPin'
p74
g52
sS'HeadImgUrl'
p75
V/cgi-bin/mmwebwx-bin/webwxgeticon?seq=1498442508&username=@8b85371dac939a03e8a6d182b185fb952f180f3d99a67387ae70372974f3413a&skey=@crypt_bda10ae4_28cfa8d595d2ee94f1759b0ab8f2d9a9
p76
sS'Sex'
p77
I0
sS'StarFriend'
p78
I0
sS'Statues'
p79
I0
stp80
Rp81
I1
bag34
(g38
g39
(dp82
VUserName
p83
V@3afdc10ab5524ba505ddf1d5b997eb878cca0d481cd204b849a5e165a7253765
p84
sVCity
p85
V\u4e1c\u57ce
p86
sVSnsFlag
p87
I49
sVDisplayName
p88
g52
sVUniFriend
p89
I0
sVMemberCount
p90
I0
sVOwnerUin
p91
I0
sVMemberList
p92
g50
sVAlias
p93
g52
sVPYQuanPin
p94
VYat3s
p95
sVSignature
p96
V\u4e00\u53ea\u7231\u73a9\u7684\u7a0b\u5e8f\u6c6a<span class="emoji emoji1f436"></span>
p97
sVRemarkPYInitial
p98
g52
sVContactFlag
p99
I3
sVUin
p100
I0
sVNickName
p101
VYat3s
p102
sVAppAccountFlag
p103
I0
sVVerifyFlag
p104
I0
sVRemarkPYQuanPin
p105
g52
sVHeadImgUrl
p106
V/cgi-bin/mmwebwx-bin/webwxgeticon?seq=603850332&username=@3afdc10ab5524ba505ddf1d5b997eb878cca0d481cd204b849a5e165a7253765&skey=@crypt_bda10ae4_28cfa8d595d2ee94f1759b0ab8f2d9a9
p107
sVKeyWord
p108
g52
sVProvince
p109
V\u5317\u4eac
p110
sVPYInitial
p111
VYAT3S
p112
sVRemarkName
p113
g52
sVIsOwner
p114
I0
sVSex
p115
I1
sVStarFriend
p116
I0
sVHideInputBarFlag
p117
I0
sVChatRoomId
p118
I0
sVEncryChatRoomId
p119
g52
sVAttrStatus
p120
I37851239
sVStatues
p121
I0
stp122
Rp123
I1
bag34
(g38
g39
(dp124
VUserName
p125
V@e5799644b37b7c4287194ee4a358d882e9c22265270a0a5cb3de13593868b73e
p126
sVCity
p127
g52
sVSnsFlag
p128
I17
sVDisplayName
p129
g52
sVUniFriend
p130
I0
sVMemberCount
p131
I0
sVOwnerUin
p132
I0
sVMemberList
p133
g50
sVAlias
p134
g52
sVPYQuanPin
p135
Vmeiguishilichunfeng
p136
sVSignature
p137
V\u800c\u4eca\u6811\u58ee\u5fd7        \u4ee5\u5f85\u626c\u56fd\u5a01
p138
sVRemarkPYInitial
p139
g52
sVContactFlag
p140
I3
sVUin
p141
I0
sVNickName
p142
V[\u73ab\u7470]\u5341\u91cc\u6625\u98ce
p143
sVAppAccountFlag
p144
I0
sVVerifyFlag
p145
I0
sVRemarkPYQuanPin
p146
g52
sVHeadImgUrl
p147
V/cgi-bin/mmwebwx-bin/webwxgeticon?seq=603852839&username=@e5799644b37b7c4287194ee4a358d882e9c22265270a0a5cb3de13593868b73e&skey=@crypt_bda10ae4_28cfa8d595d2ee94f1759b0ab8f2d9a9
p148
sVKeyWord
p149
g52
sVProvince
p150
VParis
p151
sVPYInitial
p152
VMGSLCF
p153
sVRemarkName
p154
g52
sVIsOwner
p155
I0
sVSex
p156
I1
sVStarFriend
p157
I0
sVHideInputBarFlag
p158
I0
sVChatRoomId
p159
I0
sVEncryChatRoomId
p160
g52
sVAttrStatus
p161
I102439
sVStatues
p162
I0
stp163
Rp164
I1
bag34
(g38
g39
(dp165
VUserName
p166
V@8ddbd99b6fc6b8fe70575d280ab4a9f5bb5eb6b0c1201fce2c7680e3376d745c
p167
sVCity
p168
V\u671d\u9633
p169
sVSnsFlag
p170
I17
sVDisplayName
p171
g52
sVUniFriend
p172
I0
sVMemberCount
p173
I0
sVOwnerUin
p174
I0
sVMemberList
p175
g50
sVAlias
p176
g52
sVPYQuanPin
p177
VKerry
p178
sVSignature
p179
V\u4ee5\u68a6\u4e3a\u9a6c\uff0c\u4e0d\u8d1f\u97f6\u534e
p180
sVRemarkPYInitial
p181
g52
sVContactFlag
p182
I3
sVUin
p183
I0
sVNickName
p184
VKerry
p185
sVAppAccountFlag
p186
I0
sVVerifyFlag
p187
I0
sVRemarkPYQuanPin
p188
g52
sVHeadImgUrl
p189
V/cgi-bin/mmwebwx-bin/webwxgeticon?seq=603850763&username=@8ddbd99b6fc6b8fe70575d280ab4a9f5bb5eb6b0c1201fce2c7680e3376d745c&skey=@crypt_bda10ae4_28cfa8d595d2ee94f1759b0ab8f2d9a9
p190
sVKeyWord
p191
g52
sVProvince
p192
V\u5317\u4eac
p193
sVPYInitial
p194
VKERRY
p195
sVRemarkName
p196
g52
sVIsOwner
p197
I0
sVSex
p198
I2
sVStarFriend
p199
I0
sVHideInputBarFlag
p200
I0
sVChatRoomId
p201
I0
sVEncryChatRoomId
p202
g52
sVAttrStatus
p203
I33674359
sVStatues
p204
I0
stp205
Rp206
I1
bag34
(g38
g39
(dp207
VUserName
p208
V@449739643f96b3d2f83ad2a939a99378a9600527481c03df4709353cc37c68a9
p209
sVCity
p210
V\u8d63\u5dde
p211
sVSnsFlag
p212
I49
sVDisplayName
p213
g52
sVUniFriend
p214
I0
sVMemberCount
p215
I0
sVOwnerUin
p216
I0
sVMemberList
p217
g50
sVAlias
p218
g52
sVPYQuanPin
p219
Vxiaoliao15807504515
p220
sVSignature
p221
V\u4e0b\u8f88\u5b50\u6295\u80ce\u505a\u4e2a\u7537\u4eba\uff0c\u5a36\u4e2a\u50cf\u6211\u8fd9\u6837\u7684\u5973\u4eba\U0001f64815807504515
p222
sVRemarkPYInitial
p223
VELAINE
p224
sVContactFlag
p225
I3
sVUin
p226
I0
sVNickName
p227
V\u5c0f\u5ed6 15807504515
p228
sVAppAccountFlag
p229
I0
sVVerifyFlag
p230
I0
sVRemarkPYQuanPin
p231
VElaine
p232
sVHeadImgUrl
p233
V/cgi-bin/mmwebwx-bin/webwxgeticon?seq=603850127&username=@449739643f96b3d2f83ad2a939a99378a9600527481c03df4709353cc37c68a9&skey=@crypt_bda10ae4_28cfa8d595d2ee94f1759b0ab8f2d9a9
p234
sVKeyWord
p235
g52
sVProvince
p236
V\u6c5f\u897f
p237
sVPYInitial
p238
VXL15807504515
p239
sVRemarkName
p240
VElaine
p241
sVIsOwner
p242
I0
sVSex
p243
I2
sVStarFriend
p244
I0
sVHideInputBarFlag
p245
I0
sVChatRoomId
p246
I0
sVEncryChatRoomId
p247
g52
sVAttrStatus
p248
I69669
sVStatues
p249
I0
stp250
Rp251
I1
bag34
(g38
g39
(dp252
VUserName
p253
V@23787099ad532e1f618e0c5bc5dce2aeb7f1d39080ae9275fa9698442204e478
p254
sVCity
p255
g52
sVSnsFlag
p256
I17
sVDisplayName
p257
g52
sVUniFriend
p258
I0
sVMemberCount
p259
I0
sVOwnerUin
p260
I0
sVMemberList
p261
g50
sVAlias
p262
g52
sVPYQuanPin
p263
Vspanclassemojiemoji1f33espancaoyispanclassemojiemoji1f33espan
p264
sVSignature
p265
V\u6709\u82b1\u6709\u6708\u6709\u697c\u53f0 \u4e0d\u98ce\u6d41\u5904\u4e5f\u98ce\u6d41
p266
sVRemarkPYInitial
p267
g52
sVContactFlag
p268
I3
sVUin
p269
I0
sVNickName
p270
V\U0001f33e\u8349\u4e59\U0001f33e
p271
sVAppAccountFlag
p272
I0
sVVerifyFlag
p273
I0
sVRemarkPYQuanPin
p274
g52
sVHeadImgUrl
p275
V/cgi-bin/mmwebwx-bin/webwxgeticon?seq=603850966&username=@23787099ad532e1f618e0c5bc5dce2aeb7f1d39080ae9275fa9698442204e478&skey=@crypt_bda10ae4_28cfa8d595d2ee94f1759b0ab8f2d9a9
p276
sVKeyWord
p277
g52
sVProvince
p278
g52
sVPYInitial
p279
VSPANCLASSEMOJIEMOJI1F33ESPANCYSPANCLASSEMOJIEMOJI1F33ESPAN
p280
sVRemarkName
p281
g52
sVIsOwner
p282
I0
sVSex
p283
I2
sVStarFriend
p284
I0
sVHideInputBarFlag
p285
I0
sVChatRoomId
p286
I0
sVEncryChatRoomId
p287
g52
sVAttrStatus
p288
I33785893
sVStatues
p289
I0
stp290
Rp291
I1
bag34
(g38
g39
(dp292
VUserName
p293
V@f8dcd0d44ef6612d515d6b958f050c5f
p294
sVCity
p295
V\u8475\u9752\u533a
p296
sVSnsFlag
p297
I49
sVDisplayName
p298
g52
sVUniFriend
p299
I0
sVMemberCount
p300
I0
sVOwnerUin
p301
I0
sVMemberList
p302
g50
sVAlias
p303
g52
sVPYQuanPin
p304
Vspanclassemojiemoji1f335spanyezhier
p305
sVSignature
p306
V\u65f6\u5149\u6f2b\u957f\uff0c\u6709\u6211\u522b\u614c\u3002<span class="emoji emoji1f618"></span>
p307
sVRemarkPYInitial
p308
g52
sVContactFlag
p309
I3
sVUin
p310
I0
sVNickName
p311
V\U0001f335\u6930\u6c41\u513f
p312
sVAppAccountFlag
p313
I0
sVVerifyFlag
p314
I0
sVRemarkPYQuanPin
p315
g52
sVHeadImgUrl
p316
V/cgi-bin/mmwebwx-bin/webwxgeticon?seq=603850968&username=@f8dcd0d44ef6612d515d6b958f050c5f&skey=@crypt_bda10ae4_28cfa8d595d2ee94f1759b0ab8f2d9a9
p317
sVKeyWord
p318
Vyev
p319
sVProvince
p320
V\u9999\u6e2f
p321
sVPYInitial
p322
VSPANCLASSEMOJIEMOJI1F335SPANYZE
p323
sVRemarkName
p324
g52
sVIsOwner
p325
I0
sVSex
p326
I2
sVStarFriend
p327
I0
sVHideInputBarFlag
p328
I0
sVChatRoomId
p329
I0
sVEncryChatRoomId
p330
g52
sVAttrStatus
p331
I67623
sVStatues
p332
I0
stp333
Rp334
I1
bag34
(g38
g39
(dp335
VUserName
p336
V@17dde9e8a2910a5cd534865a3d439e58ed0348a555ad8b7481b0dcc6820af65f
p337
sVCity
p338
g52
sVSnsFlag
p339
I17
sVDisplayName
p340
g52
sVUniFriend
p341
I0
sVMemberCount
p342
I0
sVOwnerUin
p343
I0
sVMemberList
p344
g50
sVAlias
p345
g52
sVPYQuanPin
p346
Vxiaodeqiu
p347
sVSignature
p348
V\u5b66\u800c\u4e0d\u601d\u5219\u7f54\uff0c\u54c8\u54c8
p349
sVRemarkPYInitial
p350
g52
sVContactFlag
p351
I3
sVUin
p352
I0
sVNickName
p353
V\u5c0f\u5730\u7403
p354
sVAppAccountFlag
p355
I0
sVVerifyFlag
p356
I0
sVRemarkPYQuanPin
p357
g52
sVHeadImgUrl
p358
V/cgi-bin/mmwebwx-bin/webwxgeticon?seq=603851078&username=@17dde9e8a2910a5cd534865a3d439e58ed0348a555ad8b7481b0dcc6820af65f&skey=@crypt_bda10ae4_28cfa8d595d2ee94f1759b0ab8f2d9a9
p359
sVKeyWord
p360
g52
sVProvince
p361
VFrankfurt
p362
sVPYInitial
p363
VXDQ
p364
sVRemarkName
p365
g52
sVIsOwner
p366
I0
sVSex
p367
I1
sVStarFriend
p368
I0
sVHideInputBarFlag
p369
I0
sVChatRoomId
p370
I0
sVEncryChatRoomId
p371
g52
sVAttrStatus
p372
I33789989
sVStatues
p373
I0
stp374
Rp375
I1
bag34
(g38
g39
(dp376
VUserName
p377
V@011c8039bc03ab09fe690b9d91fd274d89ef3d0e9f895bbfa48c81be9474cb2c
p378
sVCity
p379
g52
sVSnsFlag
p380
I49
sVDisplayName
p381
g52
sVUniFriend
p382
I0
sVMemberCount
p383
I0
sVOwnerUin
p384
I0
sVMemberList
p385
g50
sVAlias
p386
g52
sVPYQuanPin
p387
Vechoxiaomeng
p388
sVSignature
p389
V\u65e2\u7136\u7434\u745f\u8d77
p390
sVRemarkPYInitial
p391
g52
sVContactFlag
p392
I3
sVUin
p393
I0
sVNickName
p394
Vecho\u5c0f\u840c
p395
sVAppAccountFlag
p396
I0
sVVerifyFlag
p397
I0
sVRemarkPYQuanPin
p398
g52
sVHeadImgUrl
p399
V/cgi-bin/mmwebwx-bin/webwxgeticon?seq=603851910&username=@011c8039bc03ab09fe690b9d91fd274d89ef3d0e9f895bbfa48c81be9474cb2c&skey=@crypt_bda10ae4_28cfa8d595d2ee94f1759b0ab8f2d9a9
p400
sVKeyWord
p401
g52
sVProvince
p402
V\u5317\u4eac
p403
sVPYInitial
p404
VECHOXM
p405
sVRemarkName
p406
g52
sVIsOwner
p407
I0
sVSex
p408
I2
sVStarFriend
p409
I0
sVHideInputBarFlag
p410
I0
sVChatRoomId
p411
I0
sVEncryChatRoomId
p412
g52
sVAttrStatus
p413
I67224677
sVStatues
p414
I0
stp415
Rp416
I1
bag34
(g38
g39
(dp417
VUserName
p418
V@46f919e0efef6f21916cf7057c1a644a
p419
sVCity
p420
V\u671d\u9633
p421
sVSnsFlag
p422
I49
sVDisplayName
p423
g52
sVUniFriend
p424
I0
sVMemberCount
p425
I0
sVOwnerUin
p426
I0
sVMemberList
p427
g50
sVAlias
p428
g52
sVPYQuanPin
p429
Vspanclassemojiemoji1f343span
p430
sVSignature
p431
V<span class="emoji emoji2708"></span>\ufe0f
p432
sVRemarkPYInitial
p433
g52
sVContactFlag
p434
I3
sVUin
p435
I0
sVNickName
p436
V\U0001f343
p437
sVAppAccountFlag
p438
I0
sVVerifyFlag
p439
I0
sVRemarkPYQuanPin
p440
g52
sVHeadImgUrl
p441
V/cgi-bin/mmwebwx-bin/webwxgeticon?seq=606870188&username=@46f919e0efef6f21916cf7057c1a644a&skey=@crypt_bda10ae4_28cfa8d595d2ee94f1759b0ab8f2d9a9
p442
sVKeyWord
p443
VYE1
p444
sVProvince
p445
V\u5317\u4eac
p446
sVPYInitial
p447
VSPANCLASSEMOJIEMOJI1F343SPAN
p448
sVRemarkName
p449
g52
sVIsOwner
p450
I0
sVSex
p451
I2
sVStarFriend
p452
I0
sVHideInputBarFlag
p453
I0
sVChatRoomId
p454
I0
sVEncryChatRoomId
p455
g52
sVAttrStatus
p456
I229863
sVStatues
p457
I0
stp458
Rp459
I1
batp460
Rp461
I1
bsS'chatroomList'
p462
g34
(g35
g36
(lp463
g34
(cchatcore.storage.templates
Chatroom
p464
g39
(dp465
VUserName
p466
V@@086ea9e58a62b3b9005b58c8e94c7366024c2f9da6c13769598666229cf015e9
p467
sVCity
p468
g52
sVDisplayName
p469
g52
sVUniFriend
p470
I0
sS'Self'
p471
g34
(g38
g39
(dp472
g41
g31
sg42
g43
sg44
g43
sg45
I0
sg46
I0
sg47
g34
(g35
g36
(lp473
tp474
Rp475
I1
bsg51
g52
sg53
g52
sg54
I3413407412
sg55
I0
sg56
I0
sg57
g43
sg58
g43
sg59
g52
sg60
g52
sg61
I0
sg62
I0
sg63
I1
sg64
g43
sg65
I0
sg66
I0
sg67
I0
sg68
I0
sg69
g43
sg70
g52
sg71
I0
sg72
g73
sg74
g52
sg75
g76
sg77
I0
sg78
I0
sg79
I0
stp476
Rp477
I1
bsVMemberList
p478
g34
(g35
g36
(lp479
tp480
Rp481
I1
bsVPYQuanPin
p482
g52
sVRemarkPYInitial
p483
g52
sVSex
p484
I0
sVAppAccountFlag
p485
I0
sVVerifyFlag
p486
I0
sVProvince
p487
g52
sVKeyWord
p488
g52
sVRemarkName
p489
g52
sVPYInitial
p490
g52
sVIsOwner
p491
I0
sVChatRoomId
p492
I0
sVHideInputBarFlag
p493
I0
sVEncryChatRoomId
p494
g52
sVAttrStatus
p495
I0
sVSnsFlag
p496
I0
sVMemberCount
p497
I3
sVOwnerUin
p498
I0
sVAlias
p499
g52
sS'IsAdmin'
p500
NsVSignature
p501
g52
sVContactFlag
p502
I0
sVNickName
p503
VYat3s,echo\u5c0f\u840c,Aran
p504
sVRemarkPYQuanPin
p505
g52
sVHeadImgUrl
p506
V/cgi-bin/mmwebwx-bin/webwxgetheadimg?seq=0&username=@@086ea9e58a62b3b9005b58c8e94c7366024c2f9da6c13769598666229cf015e9&skey=@crypt_bda10ae4_28cfa8d595d2ee94f1759b0ab8f2d9a9
p507
sVUin
p508
I0
sVStarFriend
p509
I0
sVStatues
p510
I1
stp511
Rp512
I1
bag34
(g464
g39
(dp513
VUserName
p514
V@@a1beb81747af7278fa507303506fe4f25920ad3bf91219ae3855efabb63583f2
p515
sVCity
p516
g52
sVDisplayName
p517
g52
sVUniFriend
p518
I0
sg471
g34
(g38
g39
(dp519
g41
g31
sg42
g43
sg44
g43
sg45
I0
sg46
I0
sg47
g34
(g35
g36
(lp520
tp521
Rp522
I1
bsg51
g52
sg53
g52
sg54
I3413407412
sg55
I0
sg56
I0
sg57
g43
sg58
g43
sg59
g52
sg60
g52
sg61
I0
sg62
I0
sg63
I1
sg64
g43
sg65
I0
sg66
I0
sg67
I0
sg68
I0
sg69
g43
sg70
g52
sg71
I0
sg72
g73
sg74
g52
sg75
g76
sg77
I0
sg78
I0
sg79
I0
stp523
Rp524
I1
bsVMemberList
p525
g34
(g35
g36
(lp526
tp527
Rp528
I1
bsVPYQuanPin
p529
g52
sVRemarkPYInitial
p530
g52
sVSex
p531
I0
sVAppAccountFlag
p532
I0
sVVerifyFlag
p533
I0
sVProvince
p534
g52
sVKeyWord
p535
g52
sVRemarkName
p536
g52
sVPYInitial
p537
g52
sVIsOwner
p538
I0
sVChatRoomId
p539
I0
sVHideInputBarFlag
p540
I0
sVEncryChatRoomId
p541
g52
sVAttrStatus
p542
I0
sVSnsFlag
p543
I0
sVMemberCount
p544
I8
sVOwnerUin
p545
I0
sVAlias
p546
g52
sg500
NsVSignature
p547
g52
sVContactFlag
p548
I2
sVNickName
p549
Vbdp\u79fb\u52a8\u7ec4
p550
sVRemarkPYQuanPin
p551
g52
sVHeadImgUrl
p552
V/cgi-bin/mmwebwx-bin/webwxgetheadimg?seq=603850379&username=@@a1beb81747af7278fa507303506fe4f25920ad3bf91219ae3855efabb63583f2&skey=@crypt_bda10ae4_28cfa8d595d2ee94f1759b0ab8f2d9a9
p553
sVUin
p554
I0
sVStarFriend
p555
I0
sVStatues
p556
I1
stp557
Rp558
I1
bag34
(g464
g39
(dp559
VUserName
p560
V@@3f16d6e3dc20bdf752a7768a11106b8d8e1c0d8766dc208244e411b95c605357
p561
sVCity
p562
g52
sVDisplayName
p563
g52
sVUniFriend
p564
I0
sg471
g34
(g38
g39
(dp565
g41
g31
sg42
g43
sg44
g43
sg45
I0
sg46
I0
sg47
g34
(g35
g36
(lp566
tp567
Rp568
I1
bsg51
g52
sg53
g52
sg54
I3413407412
sg55
I0
sg56
I0
sg57
g43
sg58
g43
sg59
g52
sg60
g52
sg61
I0
sg62
I0
sg63
I1
sg64
g43
sg65
I0
sg66
I0
sg67
I0
sg68
I0
sg69
g43
sg70
g52
sg71
I0
sg72
g73
sg74
g52
sg75
g76
sg77
I0
sg78
I0
sg79
I0
stp569
Rp570
I1
bsVMemberList
p571
g34
(g35
g36
(lp572
tp573
Rp574
I1
bsVPYQuanPin
p575
g52
sVRemarkPYInitial
p576
g52
sVSex
p577
I0
sVAppAccountFlag
p578
I0
sVVerifyFlag
p579
I0
sVProvince
p580
g52
sVKeyWord
p581
g52
sVRemarkName
p582
g52
sVPYInitial
p583
g52
sVIsOwner
p584
I0
sVChatRoomId
p585
I0
sVHideInputBarFlag
p586
I0
sVEncryChatRoomId
p587
g52
sVAttrStatus
p588
I0
sVSnsFlag
p589
I0
sVMemberCount
p590
I3
sVOwnerUin
p591
I0
sVAlias
p592
g52
sg500
NsVSignature
p593
g52
sVContactFlag
p594
I0
sVNickName
p595
VYat3s,Kerry,Aran
p596
sVRemarkPYQuanPin
p597
g52
sVHeadImgUrl
p598
V/cgi-bin/mmwebwx-bin/webwxgetheadimg?seq=0&username=@@3f16d6e3dc20bdf752a7768a11106b8d8e1c0d8766dc208244e411b95c605357&skey=@crypt_bda10ae4_28cfa8d595d2ee94f1759b0ab8f2d9a9
p599
sVUin
p600
I0
sVStarFriend
p601
I0
sVStatues
p602
I1
stp603
Rp604
I1
bag34
(g464
g39
(dp605
VUserName
p606
V@@3af94138eaffaec596c1018d1d010092635d562f9ec897fd0e3f9513142898d6
p607
sVCity
p608
g52
sVDisplayName
p609
g52
sVUniFriend
p610
I0
sg471
g34
(g38
g39
(dp611
g41
g31
sg42
g43
sg44
g43
sg45
I0
sg46
I0
sg47
g34
(g35
g36
(lp612
tp613
Rp614
I1
bsg51
g52
sg53
g52
sg54
I3413407412
sg55
I0
sg56
I0
sg57
g43
sg58
g43
sg59
g52
sg60
g52
sg61
I0
sg62
I0
sg63
I1
sg64
g43
sg65
I0
sg66
I0
sg67
I0
sg68
I0
sg69
g43
sg70
g52
sg71
I0
sg72
g73
sg74
g52
sg75
g76
sg77
I0
sg78
I0
sg79
I0
stp615
Rp616
I1
bsVMemberList
p617
g34
(g35
g36
(lp618
tp619
Rp620
I1
bsVPYQuanPin
p621
g52
sVRemarkPYInitial
p622
g52
sVSex
p623
I0
sVAppAccountFlag
p624
I0
sVVerifyFlag
p625
I0
sVProvince
p626
g52
sVKeyWord
p627
g52
sVRemarkName
p628
g52
sVPYInitial
p629
g52
sVIsOwner
p630
I0
sVChatRoomId
p631
I0
sVHideInputBarFlag
p632
I0
sVEncryChatRoomId
p633
g52
sVAttrStatus
p634
I0
sVSnsFlag
p635
I0
sVMemberCount
p636
I10
sVOwnerUin
p637
I0
sVAlias
p638
g52
sg500
NsVSignature
p639
g52
sVContactFlag
p640
I0
sVNickName
p641
V\u5bbe\u679c\u8001\u55e8\uff0c\u5bbe\u679c\u4efd\u4f4e
p642
sVRemarkPYQuanPin
p643
g52
sVHeadImgUrl
p644
V/cgi-bin/mmwebwx-bin/webwxgetheadimg?seq=0&username=@@3af94138eaffaec596c1018d1d010092635d562f9ec897fd0e3f9513142898d6&skey=@crypt_bda10ae4_28cfa8d595d2ee94f1759b0ab8f2d9a9
p645
sVUin
p646
I0
sVStarFriend
p647
I0
sVStatues
p648
I1
stp649
Rp650
I1
bag34
(g464
g39
(dp651
VUserName
p652
V@@94f1063945ff2216635b16dc217dc0a916bcb4f4e84dfdd9306601edb5bb29d1
p653
sVCity
p654
g52
sVDisplayName
p655
g52
sVUniFriend
p656
I0
sg471
g34
(g38
g39
(dp657
g41
g31
sg42
g43
sg44
g43
sg45
I0
sg46
I0
sg47
g34
(g35
g36
(lp658
tp659
Rp660
I1
bsg51
g52
sg53
g52
sg54
I3413407412
sg55
I0
sg56
I0
sg57
g43
sg58
g43
sg59
g52
sg60
g52
sg61
I0
sg62
I0
sg63
I1
sg64
g43
sg65
I0
sg66
I0
sg67
I0
sg68
I0
sg69
g43
sg70
g52
sg71
I0
sg72
g73
sg74
g52
sg75
g76
sg77
I0
sg78
I0
sg79
I0
stp661
Rp662
I1
bsVMemberList
p663
g34
(g35
g36
(lp664
tp665
Rp666
I1
bsVPYQuanPin
p667
g52
sVRemarkPYInitial
p668
g52
sVSex
p669
I0
sVAppAccountFlag
p670
I0
sVVerifyFlag
p671
I0
sVProvince
p672
g52
sVKeyWord
p673
g52
sVRemarkName
p674
g52
sVPYInitial
p675
g52
sVIsOwner
p676
I0
sVChatRoomId
p677
I0
sVHideInputBarFlag
p678
I0
sVEncryChatRoomId
p679
g52
sVAttrStatus
p680
I0
sVSnsFlag
p681
I0
sVMemberCount
p682
I8
sVOwnerUin
p683
I0
sVAlias
p684
g52
sg500
NsVSignature
p685
g52
sVContactFlag
p686
I2
sVNickName
p687
V\u7ea2\u5305\u96e8
p688
sVRemarkPYQuanPin
p689
g52
sVHeadImgUrl
p690
V/cgi-bin/mmwebwx-bin/webwxgetheadimg?seq=603850892&username=@@94f1063945ff2216635b16dc217dc0a916bcb4f4e84dfdd9306601edb5bb29d1&skey=@crypt_bda10ae4_28cfa8d595d2ee94f1759b0ab8f2d9a9
p691
sVUin
p692
I0
sVStarFriend
p693
I0
sVStatues
p694
I1
stp695
Rp696
I1
batp697
Rp698
I1
bsS'nickName'
p699
g73
sS'mpList'
p700
g34
(g35
g36
(lp701
g34
(cchatcore.storage.templates
MassivePlatform
p702
g39
(dp703
VUserName
p704
V@357f938caeb9c6cc6b2b465c2c3fadda
p705
sVCity
p706
V\u5e7f\u5dde
p707
sVSnsFlag
p708
I0
sVDisplayName
p709
g52
sVUniFriend
p710
I0
sVMemberCount
p711
I0
sVOwnerUin
p712
I0
sVMemberList
p713
g50
sVAlias
p714
g52
sVPYQuanPin
p715
Vgongzhongpingtaianquanzhushou
p716
sVSignature
p717
V\u63d0\u4f9b\u5fae\u4fe1\u516c\u4f17\u53f7\u767b\u5f55\u548c\u7fa4\u53d1\u7b49\u5b89\u5168\u64cd\u4f5c\uff0c\u5728\u624b\u673a\u4e0a\u67e5\u6536\u6d88\u606f\u3001\u8bc4\u8bba\u3001\u8d5e\u8d4f\uff0c\u65b0\u5efa\u7fa4\u53d1\u548c\u67e5\u770b\u7fa4\u53d1\u5386\u53f2\u3002
p718
sVRemarkPYInitial
p719
g52
sVContactFlag
p720
I3
sVUin
p721
I0
sVNickName
p722
V\u516c\u4f17\u5e73\u53f0\u5b89\u5168\u52a9\u624b
p723
sVAppAccountFlag
p724
I0
sVVerifyFlag
p725
I24
sVRemarkPYQuanPin
p726
g52
sVHeadImgUrl
p727
V/cgi-bin/mmwebwx-bin/webwxgeticon?seq=600880067&username=@357f938caeb9c6cc6b2b465c2c3fadda&skey=@crypt_bda10ae4_28cfa8d595d2ee94f1759b0ab8f2d9a9
p728
sVKeyWord
p729
Vmph
p730
sVProvince
p731
V\u5e7f\u4e1c
p732
sVPYInitial
p733
VGZPTAQZS
p734
sVRemarkName
p735
g52
sVIsOwner
p736
I0
sVSex
p737
I0
sVStarFriend
p738
I0
sVHideInputBarFlag
p739
I0
sVChatRoomId
p740
I0
sVEncryChatRoomId
p741
g52
sVAttrStatus
p742
I98459
sVStatues
p743
I0
stp744
Rp745
I1
bag34
(g702
g39
(dp746
VUserName
p747
V@eff1e9662fc6a46faf25b76874e47c48
p748
sVCity
p749
V\u897f\u57ce
p750
sVSnsFlag
p751
I0
sVDisplayName
p752
g52
sVUniFriend
p753
I0
sVMemberCount
p754
I0
sVOwnerUin
p755
I0
sVMemberList
p756
g50
sVAlias
p757
g52
sVPYQuanPin
p758
Vzhongguoliantong
p759
sVSignature
p760
V\u4e2d\u56fd\u8054\u901a\u5fae\u4fe1\u8425\u4e1a\u5385\uff0c\u4fbf\u6377\u968f\u8eab\uff0c\u67e5\u8be2\u529e\u7406\u4e00\u952e\u641e\u5b9a\uff0c\u8fd8\u6709\u5ba2\u670dMM\u8d34\u5fc3\u89e3\u5fe7\uff0c\u66f4\u591a\u8d44\u8baf\u63a8\u8350\u4e0e\u60a8\u5206\u4eab\u3002\u656c\u8bf7\u5149\u4e34\uff0c\u671f\u5f85\u60ca\u559c\uff01
p761
sVRemarkPYInitial
p762
g52
sVContactFlag
p763
I3
sVUin
p764
I0
sVNickName
p765
V\u4e2d\u56fd\u8054\u901a
p766
sVAppAccountFlag
p767
I0
sVVerifyFlag
p768
I24
sVRemarkPYQuanPin
p769
g52
sVHeadImgUrl
p770
V/cgi-bin/mmwebwx-bin/webwxgeticon?seq=603850307&username=@eff1e9662fc6a46faf25b76874e47c48&skey=@crypt_bda10ae4_28cfa8d595d2ee94f1759b0ab8f2d9a9
p771
sVKeyWord
p772
Vgh_
p773
sVProvince
p774
V\u5317\u4eac
p775
sVPYInitial
p776
VZGLT
p777
sVRemarkName
p778
g52
sVIsOwner
p779
I0
sVSex
p780
I0
sVStarFriend
p781
I0
sVHideInputBarFlag
p782
I0
sVChatRoomId
p783
I0
sVEncryChatRoomId
p784
g52
sVAttrStatus
p785
I0
sVStatues
p786
I0
stp787
Rp788
I1
batp789
Rp790
I1
bssS'loginInfo'
p791
(dp792
S'SyncKey'
p793
(dp794
VCount
p795
I4
sVList
p796
(lp797
(dp798
VVal
p799
I606870001
sVKey
p800
I1
sa(dp801
VVal
p802
I606870332
sVKey
p803
I2
sa(dp804
VVal
p805
I606870188
sVKey
p806
I3
sa(dp807
VVal
p808
I1493361954
sVKey
p809
I1000
sassS'syncUrl'
p810
S'https://webpush.wx2.qq.com/cgi-bin/mmwebwx-bin'
p811
sS'skey'
p812
V@crypt_bda10ae4_28cfa8d595d2ee94f1759b0ab8f2d9a9
p813
sS'wxuin'
p814
V3413407412
p815
sS'synckey'
p816
S'1_606870001|2_606870332|3_606870188|1000_1493361954'
p817
sS'url'
p818
Vhttps://wx2.qq.com/cgi-bin/mmwebwx-bin
p819
sS'pass_ticket'
p820
V6tFjVHQbXgLqAhyYIlNH9N74ukup9bOfpUkMWtV3FOY03GAt8FUY0xgmy7vkadiW
p821
sS'wxsid'
p822
VHyY+vkyOQoLDGppI
p823
sS'InviteStartCount'
p824
I40
sS'deviceid'
p825
S'e161787699226336'
p826
sS'fileUrl'
p827
S'https://file.wx2.qq.com/cgi-bin/mmwebwx-bin'
p828
sS'BaseRequest'
p829
(dp830
g54
g815
sS'Skey'
p831
g813
sS'DeviceID'
p832
g821
sS'Sid'
p833
g823
ssS'User'
p834
g34
(g38
g39
(dp835
g41
g31
sg42
g43
sg44
g43
sg45
I0
sg47
g50
sg51
g52
sg53
g52
sg77
I0
sg55
I0
sg56
I0
sg57
g43
sg58
g43
sg59
g52
sg60
g52
sg61
I0
sg62
I0
sg63
I1
sg64
g43
sg65
I0
sg68
I0
sg66
I0
sg67
I0
sg46
I0
sg69
g43
sg70
g52
sg71
I0
sg72
g73
sg74
g52
sg75
g76
sg54
I3413407412
sg78
I0
sg79
I0
stp836
Rp837
I1
bss.