(dp0
S'cookies'
p1
(dp2
S'wxloadtime'
p3
S'1493097909'
p4
sS'webwx_data_ticket'
p5
S'gSck89dY4mQw8u7ZPlT87H9o'
p6
sS'wxuin'
p7
S'3413407412'
p8
sS'login_frequency'
p9
S'2'
p10
sS'MM_WX_NOTIFY_STATE'
p11
S'1'
p12
sS'MM_WX_SOUND_STATE'
p13
g12
sS'webwx_auth_ticket'
p14
S'CIsBEJrxjp4LGoABzL7pmJcgs6WpFJfKlKFNk+BFmEPmcFYkh6UNfVEmRNkXjOL6+U8kb8DxcLfzv6KrfhjD8L4OIX/B03fL3vPpQ5FUy+H+rBtdh4xLdztoPceGypb6pX25KmzgTGZwbnCxII1YSADXvI66IohaixExHBFN85k+IB4fikaBbsCEJ/E='
p15
sS'last_wxuin'
p16
S'3413407412'
p17
sS'webwxuvid'
p18
S'0ad038a387f4269064e4a4417f4f53ec9b6b8052500512bb6d9a9cdb70b0d5658e9a36e194c37bd189fa24c747f67b04'
p19
sS'wxpluginkey'
p20
S'1493097162'
p21
sS'wxsid'
p22
S'L32uCjbfDjgV3464'
p23
sS'mm_lang'
p24
S'zh_CN'
p25
ssS'version'
p26
S'1.3.5'
p27
sS'storage'
p28
(dp29
S'userName'
p30
V@2805ed7f2b2d97370dc885585410cdf605da7ff988958451a7e122d8503e295c
p31
sS'lastInputUserName'
p32
NsS'memberList'
p33
ccopy_reg
_reconstructor
p34
(citchat.storage.templates
ContactList
p35
c__builtin__
list
p36
(lp37
g34
(citchat.storage.templates
User
p38
c__builtin__
dict
p39
(dp40
S'UserName'
p41
g31
sS'City'
p42
S''
p43
sS'DisplayName'
p44
g43
sS'UniFriend'
p45
I0
sS'OwnerUin'
p46
I0
sS'MemberList'
p47
g34
(g35
g36
(lp48
tp49
Rp50
I1
bsS'PYQuanPin'
p51
V
p52
sS'RemarkPYInitial'
p53
g52
sS'Uin'
p54
I3413407412
sS'AppAccountFlag'
p55
I0
sS'VerifyFlag'
p56
I0
sS'Province'
p57
g43
sS'KeyWord'
p58
g43
sS'RemarkName'
p59
g52
sS'PYInitial'
p60
g52
sS'ChatRoomId'
p61
I0
sS'HideInputBarFlag'
p62
I0
sVHeadImgFlag
p63
I1
sS'EncryChatRoomId'
p64
g43
sS'AttrStatus'
p65
I0
sS'SnsFlag'
p66
I0
sS'MemberCount'
p67
I0
sVWebWxPluginSwitch
p68
I0
sS'Alias'
p69
g43
sS'Signature'
p70
g52
sS'ContactFlag'
p71
I0
sS'NickName'
p72
VAran
p73
sS'RemarkPYQuanPin'
p74
g52
sS'HeadImgUrl'
p75
V/cgi-bin/mmwebwx-bin/webwxgeticon?seq=1610361004&username=@2805ed7f2b2d97370dc885585410cdf605da7ff988958451a7e122d8503e295c&skey=@crypt_bda10ae4_d3f987aca957fa0e9de79885427288fe
p76
sS'Sex'
p77
I0
sS'StarFriend'
p78
I0
sS'Statues'
p79
I0
stp80
Rp81
I1
bag34
(g38
g39
(dp82
VUserName
p83
V@3af408ea9d2773a1a10f34fcc52a1f1e53d4223653ae8f191b3d1a6583f0f08f
p84
sVCity
p85
V\u4e1c\u57ce
p86
sVSnsFlag
p87
I49
sVDisplayName
p88
g52
sVUniFriend
p89
I0
sVMemberCount
p90
I0
sVOwnerUin
p91
I0
sVMemberList
p92
g50
sVAlias
p93
VYe-zone
p94
sVPYQuanPin
p95
VYat3s
p96
sVSignature
p97
V\u4e00\u53ea\u7231\u73a9\u7684\u7a0b\u5e8f\u6c6a<span class="emoji emoji1f436"></span>
p98
sVRemarkPYInitial
p99
g52
sVContactFlag
p100
I3
sVUin
p101
I0
sVNickName
p102
VYat3s
p103
sVAppAccountFlag
p104
I0
sVVerifyFlag
p105
I0
sVRemarkPYQuanPin
p106
g52
sVHeadImgUrl
p107
V/cgi-bin/mmwebwx-bin/webwxgeticon?seq=603850332&username=@3af408ea9d2773a1a10f34fcc52a1f1e53d4223653ae8f191b3d1a6583f0f08f&skey=@crypt_bda10ae4_d3f987aca957fa0e9de79885427288fe
p108
sVKeyWord
p109
g52
sVProvince
p110
V\u5317\u4eac
p111
sVPYInitial
p112
VYAT3S
p113
sVRemarkName
p114
g52
sVIsOwner
p115
I0
sVSex
p116
I1
sVStarFriend
p117
I0
sVHideInputBarFlag
p118
I0
sVChatRoomId
p119
I0
sVEncryChatRoomId
p120
g52
sVAttrStatus
p121
I37851239
sVStatues
p122
I0
stp123
Rp124
I1
bag34
(g38
g39
(dp125
VUserName
p126
V@edff374e7e74018ba6b00d0fca20cd72cae700eb732c94d0838bdbb8ec90295a
p127
sVCity
p128
V\u671d\u9633
p129
sVSnsFlag
p130
I17
sVDisplayName
p131
g52
sVUniFriend
p132
I0
sVMemberCount
p133
I0
sVOwnerUin
p134
I0
sVMemberList
p135
g50
sVAlias
p136
Vmy_cheese92
p137
sVPYQuanPin
p138
VKerry
p139
sVSignature
p140
V\u4ee5\u68a6\u4e3a\u9a6c\uff0c\u4e0d\u8d1f\u97f6\u534e
p141
sVRemarkPYInitial
p142
g52
sVContactFlag
p143
I3
sVUin
p144
I0
sVNickName
p145
VKerry
p146
sVAppAccountFlag
p147
I0
sVVerifyFlag
p148
I0
sVRemarkPYQuanPin
p149
g52
sVHeadImgUrl
p150
V/cgi-bin/mmwebwx-bin/webwxgeticon?seq=603850763&username=@edff374e7e74018ba6b00d0fca20cd72cae700eb732c94d0838bdbb8ec90295a&skey=@crypt_bda10ae4_d3f987aca957fa0e9de79885427288fe
p151
sVKeyWord
p152
g52
sVProvince
p153
V\u5317\u4eac
p154
sVPYInitial
p155
VKERRY
p156
sVRemarkName
p157
g52
sVIsOwner
p158
I0
sVSex
p159
I2
sVStarFriend
p160
I0
sVHideInputBarFlag
p161
I0
sVChatRoomId
p162
I0
sVEncryChatRoomId
p163
g52
sVAttrStatus
p164
I33674359
sVStatues
p165
I0
stp166
Rp167
I1
bag34
(g38
g39
(dp168
VUserName
p169
V@1c1492ffcbf9329e38488eaf053b92e94b6309056e65269f6fdd34c8cebdd537
p170
sVCity
p171
g52
sVSnsFlag
p172
I17
sVDisplayName
p173
g52
sVUniFriend
p174
I0
sVMemberCount
p175
I0
sVOwnerUin
p176
I0
sVMemberList
p177
g50
sVAlias
p178
VJava2048
p179
sVPYQuanPin
p180
Vxiaodeqiu
p181
sVSignature
p182
V\u5b66\u800c\u4e0d\u601d\u5219\u7f54\uff0c\u54c8\u54c8
p183
sVRemarkPYInitial
p184
g52
sVContactFlag
p185
I3
sVUin
p186
I0
sVNickName
p187
V\u5c0f\u5730\u7403
p188
sVAppAccountFlag
p189
I0
sVVerifyFlag
p190
I0
sVRemarkPYQuanPin
p191
g52
sVHeadImgUrl
p192
V/cgi-bin/mmwebwx-bin/webwxgeticon?seq=603851078&username=@1c1492ffcbf9329e38488eaf053b92e94b6309056e65269f6fdd34c8cebdd537&skey=@crypt_bda10ae4_d3f987aca957fa0e9de79885427288fe
p193
sVKeyWord
p194
g52
sVProvince
p195
VFrankfurt
p196
sVPYInitial
p197
VXDQ
p198
sVRemarkName
p199
g52
sVIsOwner
p200
I0
sVSex
p201
I1
sVStarFriend
p202
I0
sVHideInputBarFlag
p203
I0
sVChatRoomId
p204
I0
sVEncryChatRoomId
p205
g52
sVAttrStatus
p206
I33789989
sVStatues
p207
I0
stp208
Rp209
I1
bag34
(g38
g39
(dp210
VUserName
p211
V@d8d41f7bf27e50c0f5c558cca08b1fafd8f67e18335399613c9c4814c4db3069
p212
sVCity
p213
V\u8d63\u5dde
p214
sVSnsFlag
p215
I49
sVDisplayName
p216
g52
sVUniFriend
p217
I0
sVMemberCount
p218
I0
sVOwnerUin
p219
I0
sVMemberList
p220
g50
sVAlias
p221
VElain1025
p222
sVPYQuanPin
p223
Vxiaoliao15807504515
p224
sVSignature
p225
V\u4e0b\u8f88\u5b50\u6295\u80ce\u505a\u4e2a\u7537\u4eba\uff0c\u5a36\u4e2a\u50cf\u6211\u8fd9\u6837\u7684\u5973\u4eba\U0001f64815807504515
p226
sVRemarkPYInitial
p227
VELAINE
p228
sVContactFlag
p229
I3
sVUin
p230
I0
sVNickName
p231
V\u5c0f\u5ed6 15807504515
p232
sVAppAccountFlag
p233
I0
sVVerifyFlag
p234
I0
sVRemarkPYQuanPin
p235
VElaine
p236
sVHeadImgUrl
p237
V/cgi-bin/mmwebwx-bin/webwxgeticon?seq=603850127&username=@d8d41f7bf27e50c0f5c558cca08b1fafd8f67e18335399613c9c4814c4db3069&skey=@crypt_bda10ae4_d3f987aca957fa0e9de79885427288fe
p238
sVKeyWord
p239
g52
sVProvince
p240
V\u6c5f\u897f
p241
sVPYInitial
p242
VXL15807504515
p243
sVRemarkName
p244
VElaine
p245
sVIsOwner
p246
I0
sVSex
p247
I2
sVStarFriend
p248
I0
sVHideInputBarFlag
p249
I0
sVChatRoomId
p250
I0
sVEncryChatRoomId
p251
g52
sVAttrStatus
p252
I69669
sVStatues
p253
I0
stp254
Rp255
I1
bag34
(g38
g39
(dp256
VUserName
p257
V@0eb2a5f1414649bd30d27e3ed2791525baeff3ecd58fc5dc538d2813625ac744
p258
sVCity
p259
g52
sVSnsFlag
p260
I17
sVDisplayName
p261
g52
sVUniFriend
p262
I0
sVMemberCount
p263
I0
sVOwnerUin
p264
I0
sVMemberList
p265
g50
sVAlias
p266
VYihoney_
p267
sVPYQuanPin
p268
Vspanclassemojiemoji1f33espancaoyispanclassemojiemoji1f33espan
p269
sVSignature
p270
V\u6709\u82b1\u6709\u6708\u6709\u697c\u53f0 \u4e0d\u98ce\u6d41\u5904\u4e5f\u98ce\u6d41
p271
sVRemarkPYInitial
p272
g52
sVContactFlag
p273
I3
sVUin
p274
I0
sVNickName
p275
V\U0001f33e\u8349\u4e59\U0001f33e
p276
sVAppAccountFlag
p277
I0
sVVerifyFlag
p278
I0
sVRemarkPYQuanPin
p279
g52
sVHeadImgUrl
p280
V/cgi-bin/mmwebwx-bin/webwxgeticon?seq=603850966&username=@0eb2a5f1414649bd30d27e3ed2791525baeff3ecd58fc5dc538d2813625ac744&skey=@crypt_bda10ae4_d3f987aca957fa0e9de79885427288fe
p281
sVKeyWord
p282
g52
sVProvince
p283
g52
sVPYInitial
p284
VSPANCLASSEMOJIEMOJI1F33ESPANCYSPANCLASSEMOJIEMOJI1F33ESPAN
p285
sVRemarkName
p286
g52
sVIsOwner
p287
I0
sVSex
p288
I2
sVStarFriend
p289
I0
sVHideInputBarFlag
p290
I0
sVChatRoomId
p291
I0
sVEncryChatRoomId
p292
g52
sVAttrStatus
p293
I33785893
sVStatues
p294
I0
stp295
Rp296
I1
bag34
(g38
g39
(dp297
VUserName
p298
V@d961e05e7bb543b40c5f9707af364e9c
p299
sVCity
p300
V\u8475\u9752\u533a
p301
sVSnsFlag
p302
I49
sVDisplayName
p303
g52
sVUniFriend
p304
I0
sVMemberCount
p305
I0
sVOwnerUin
p306
I0
sVMemberList
p307
g50
sVAlias
p308
g52
sVPYQuanPin
p309
Vspanclassemojiemoji1f335spanyezhier
p310
sVSignature
p311
V\u65f6\u5149\u6f2b\u957f\uff0c\u6709\u6211\u522b\u614c\u3002<span class="emoji emoji1f618"></span>
p312
sVRemarkPYInitial
p313
g52
sVContactFlag
p314
I3
sVUin
p315
I0
sVNickName
p316
V\U0001f335\u6930\u6c41\u513f
p317
sVAppAccountFlag
p318
I0
sVVerifyFlag
p319
I0
sVRemarkPYQuanPin
p320
g52
sVHeadImgUrl
p321
V/cgi-bin/mmwebwx-bin/webwxgeticon?seq=603850968&username=@d961e05e7bb543b40c5f9707af364e9c&skey=@crypt_bda10ae4_d3f987aca957fa0e9de79885427288fe
p322
sVKeyWord
p323
Vyev
p324
sVProvince
p325
V\u9999\u6e2f
p326
sVPYInitial
p327
VSPANCLASSEMOJIEMOJI1F335SPANYZE
p328
sVRemarkName
p329
g52
sVIsOwner
p330
I0
sVSex
p331
I2
sVStarFriend
p332
I0
sVHideInputBarFlag
p333
I0
sVChatRoomId
p334
I0
sVEncryChatRoomId
p335
g52
sVAttrStatus
p336
I67623
sVStatues
p337
I0
stp338
Rp339
I1
batp340
Rp341
I1
bsS'chatroomList'
p342
g34
(g35
g36
(lp343
g34
(citchat.storage.templates
Chatroom
p344
g39
(dp345
VUserName
p346
V@@fa94ac8f26ad3979166adcf783bad1ca6e9b691d3e109e8cf9745f72ab4fef02
p347
sVCity
p348
g52
sVDisplayName
p349
g52
sVUniFriend
p350
I0
sS'Self'
p351
g34
(g38
g39
(dp352
g41
g31
sg42
g43
sg44
g43
sg45
I0
sg46
I0
sg47
g34
(g35
g36
(lp353
tp354
Rp355
I1
bsg51
g52
sg53
g52
sg54
I3413407412
sg55
I0
sg56
I0
sg57
g43
sg58
g43
sg59
g52
sg60
g52
sg61
I0
sg62
I0
sg63
I1
sg64
g43
sg65
I0
sg66
I0
sg67
I0
sg68
I0
sg69
g43
sg70
g52
sg71
I0
sg72
g73
sg74
g52
sg75
g76
sg77
I0
sg78
I0
sg79
I0
stp356
Rp357
I1
bsVMemberList
p358
g34
(g35
g36
(lp359
tp360
Rp361
I1
bsVPYQuanPin
p362
g52
sVRemarkPYInitial
p363
g52
sVSex
p364
I0
sVAppAccountFlag
p365
I0
sVVerifyFlag
p366
I0
sVProvince
p367
g52
sVKeyWord
p368
g52
sVRemarkName
p369
g52
sVPYInitial
p370
g52
sVIsOwner
p371
I0
sVChatRoomId
p372
I0
sVHideInputBarFlag
p373
I0
sVEncryChatRoomId
p374
g52
sVAttrStatus
p375
I0
sVSnsFlag
p376
I0
sVMemberCount
p377
I3
sVOwnerUin
p378
I0
sVAlias
p379
g52
sS'IsAdmin'
p380
NsVSignature
p381
g52
sVContactFlag
p382
I0
sVNickName
p383
VYat3s,echo\u5c0f\u840c,Aran
p384
sVRemarkPYQuanPin
p385
g52
sVHeadImgUrl
p386
V/cgi-bin/mmwebwx-bin/webwxgetheadimg?seq=0&username=@@fa94ac8f26ad3979166adcf783bad1ca6e9b691d3e109e8cf9745f72ab4fef02&skey=@crypt_bda10ae4_d3f987aca957fa0e9de79885427288fe
p387
sVUin
p388
I0
sVStarFriend
p389
I0
sVStatues
p390
I1
stp391
Rp392
I1
bag34
(g344
g39
(dp393
VUserName
p394
V@@5ed943e821bcd37f3b043caf6635fa8a23ef5e649ca0a8899feb24270572d8e0
p395
sVCity
p396
g52
sVDisplayName
p397
g52
sVUniFriend
p398
I0
sg351
g34
(g38
g39
(dp399
g41
g31
sg42
g43
sg44
g43
sg45
I0
sg46
I0
sg47
g34
(g35
g36
(lp400
tp401
Rp402
I1
bsg51
g52
sg53
g52
sg54
I3413407412
sg55
I0
sg56
I0
sg57
g43
sg58
g43
sg59
g52
sg60
g52
sg61
I0
sg62
I0
sg63
I1
sg64
g43
sg65
I0
sg66
I0
sg67
I0
sg68
I0
sg69
g43
sg70
g52
sg71
I0
sg72
g73
sg74
g52
sg75
g76
sg77
I0
sg78
I0
sg79
I0
stp403
Rp404
I1
bsVMemberList
p405
g34
(g35
g36
(lp406
tp407
Rp408
I1
bsVPYQuanPin
p409
g52
sVRemarkPYInitial
p410
g52
sVSex
p411
I0
sVAppAccountFlag
p412
I0
sVVerifyFlag
p413
I0
sVProvince
p414
g52
sVKeyWord
p415
g52
sVRemarkName
p416
g52
sVPYInitial
p417
g52
sVIsOwner
p418
I0
sVChatRoomId
p419
I0
sVHideInputBarFlag
p420
I0
sVEncryChatRoomId
p421
g52
sVAttrStatus
p422
I0
sVSnsFlag
p423
I0
sVMemberCount
p424
I3
sVOwnerUin
p425
I0
sVAlias
p426
g52
sg380
NsVSignature
p427
g52
sVContactFlag
p428
I0
sVNickName
p429
VTsui.,Yat3s,Aran
p430
sVRemarkPYQuanPin
p431
g52
sVHeadImgUrl
p432
V/cgi-bin/mmwebwx-bin/webwxgetheadimg?seq=0&username=@@5ed943e821bcd37f3b043caf6635fa8a23ef5e649ca0a8899feb24270572d8e0&skey=@crypt_bda10ae4_d3f987aca957fa0e9de79885427288fe
p433
sVUin
p434
I0
sVStarFriend
p435
I0
sVStatues
p436
I1
stp437
Rp438
I1
bag34
(g344
g39
(dp439
VUserName
p440
V@@4d7c852db0f036f0da777db0f8a31be958a5524e5938ac1fc2183f52d2dd4487
p441
sVCity
p442
g52
sVDisplayName
p443
g52
sVUniFriend
p444
I0
sg351
g34
(g38
g39
(dp445
g41
g31
sg42
g43
sg44
g43
sg45
I0
sg46
I0
sg47
g34
(g35
g36
(lp446
tp447
Rp448
I1
bsg51
g52
sg53
g52
sg54
I3413407412
sg55
I0
sg56
I0
sg57
g43
sg58
g43
sg59
g52
sg60
g52
sg61
I0
sg62
I0
sg63
I1
sg64
g43
sg65
I0
sg66
I0
sg67
I0
sg68
I0
sg69
g43
sg70
g52
sg71
I0
sg72
g73
sg74
g52
sg75
g76
sg77
I0
sg78
I0
sg79
I0
stp449
Rp450
I1
bsVMemberList
p451
g34
(g35
g36
(lp452
tp453
Rp454
I1
bsVPYQuanPin
p455
g52
sVRemarkPYInitial
p456
g52
sVSex
p457
I0
sVAppAccountFlag
p458
I0
sVVerifyFlag
p459
I0
sVProvince
p460
g52
sVKeyWord
p461
g52
sVRemarkName
p462
g52
sVPYInitial
p463
g52
sVIsOwner
p464
I0
sVChatRoomId
p465
I0
sVHideInputBarFlag
p466
I0
sVEncryChatRoomId
p467
g52
sVAttrStatus
p468
I0
sVSnsFlag
p469
I0
sVMemberCount
p470
I8
sVOwnerUin
p471
I0
sVAlias
p472
g52
sg380
NsVSignature
p473
g52
sVContactFlag
p474
I2
sVNickName
p475
V\u7ea2\u5305\u96e8
p476
sVRemarkPYQuanPin
p477
g52
sVHeadImgUrl
p478
V/cgi-bin/mmwebwx-bin/webwxgetheadimg?seq=603850892&username=@@4d7c852db0f036f0da777db0f8a31be958a5524e5938ac1fc2183f52d2dd4487&skey=@crypt_bda10ae4_d3f987aca957fa0e9de79885427288fe
p479
sVUin
p480
I0
sVStarFriend
p481
I0
sVStatues
p482
I1
stp483
Rp484
I1
bag34
(g344
g39
(dp485
VUserName
p486
V@@d915641c38ab1e22501695622f7077fb8fb1e408d570264d0278ce92ab02b918
p487
sVCity
p488
g52
sVDisplayName
p489
g52
sVUniFriend
p490
I0
sg351
g34
(g38
g39
(dp491
g41
g31
sg42
g43
sg44
g43
sg45
I0
sg46
I0
sg47
g34
(g35
g36
(lp492
tp493
Rp494
I1
bsg51
g52
sg53
g52
sg54
I3413407412
sg55
I0
sg56
I0
sg57
g43
sg58
g43
sg59
g52
sg60
g52
sg61
I0
sg62
I0
sg63
I1
sg64
g43
sg65
I0
sg66
I0
sg67
I0
sg68
I0
sg69
g43
sg70
g52
sg71
I0
sg72
g73
sg74
g52
sg75
g76
sg77
I0
sg78
I0
sg79
I0
stp495
Rp496
I1
bsVMemberList
p497
g34
(g35
g36
(lp498
tp499
Rp500
I1
bsVPYQuanPin
p501
g52
sVRemarkPYInitial
p502
g52
sVSex
p503
I0
sVAppAccountFlag
p504
I0
sVVerifyFlag
p505
I0
sVProvince
p506
g52
sVKeyWord
p507
g52
sVRemarkName
p508
g52
sVPYInitial
p509
g52
sVIsOwner
p510
I0
sVChatRoomId
p511
I0
sVHideInputBarFlag
p512
I0
sVEncryChatRoomId
p513
g52
sVAttrStatus
p514
I0
sVSnsFlag
p515
I0
sVMemberCount
p516
I8
sVOwnerUin
p517
I0
sVAlias
p518
g52
sg380
NsVSignature
p519
g52
sVContactFlag
p520
I2
sVNickName
p521
Vbdp\u79fb\u52a8\u7ec4
p522
sVRemarkPYQuanPin
p523
g52
sVHeadImgUrl
p524
V/cgi-bin/mmwebwx-bin/webwxgetheadimg?seq=603850379&username=@@d915641c38ab1e22501695622f7077fb8fb1e408d570264d0278ce92ab02b918&skey=@crypt_bda10ae4_d3f987aca957fa0e9de79885427288fe
p525
sVUin
p526
I0
sVStarFriend
p527
I0
sVStatues
p528
I1
stp529
Rp530
I1
bag34
(g344
g39
(dp531
VUserName
p532
V@@ad87ddd4f03c11f6f507f695b1fadeea2b7ab4360a904f390b2f9413e191d38f
p533
sVCity
p534
g52
sVDisplayName
p535
g52
sVUniFriend
p536
I0
sg351
g34
(g38
g39
(dp537
g41
g31
sg42
g43
sg44
g43
sg45
I0
sg46
I0
sg47
g34
(g35
g36
(lp538
tp539
Rp540
I1
bsg51
g52
sg53
g52
sg54
I3413407412
sg55
I0
sg56
I0
sg57
g43
sg58
g43
sg59
g52
sg60
g52
sg61
I0
sg62
I0
sg63
I1
sg64
g43
sg65
I0
sg66
I0
sg67
I0
sg68
I0
sg69
g43
sg70
g52
sg71
I0
sg72
g73
sg74
g52
sg75
g76
sg77
I0
sg78
I0
sg79
I0
stp541
Rp542
I1
bsVMemberList
p543
g34
(g35
g36
(lp544
tp545
Rp546
I1
bsVPYQuanPin
p547
g52
sVRemarkPYInitial
p548
g52
sVSex
p549
I0
sVAppAccountFlag
p550
I0
sVVerifyFlag
p551
I0
sVProvince
p552
g52
sVKeyWord
p553
g52
sVRemarkName
p554
g52
sVPYInitial
p555
g52
sVIsOwner
p556
I0
sVChatRoomId
p557
I0
sVHideInputBarFlag
p558
I0
sVEncryChatRoomId
p559
g52
sVAttrStatus
p560
I0
sVSnsFlag
p561
I0
sVMemberCount
p562
I3
sVOwnerUin
p563
I0
sVAlias
p564
g52
sg380
NsVSignature
p565
g52
sVContactFlag
p566
I0
sVNickName
p567
V\u7a0b\u5e8f\u733f\u7684\u4eba\u5de5\u667a\u80fd\u5973\u53cb
p568
sVRemarkPYQuanPin
p569
g52
sVHeadImgUrl
p570
V/cgi-bin/mmwebwx-bin/webwxgetheadimg?seq=0&username=@@ad87ddd4f03c11f6f507f695b1fadeea2b7ab4360a904f390b2f9413e191d38f&skey=@crypt_bda10ae4_d3f987aca957fa0e9de79885427288fe
p571
sVUin
p572
I0
sVStarFriend
p573
I0
sVStatues
p574
I1
stp575
Rp576
I1
batp577
Rp578
I1
bsS'nickName'
p579
g73
sS'mpList'
p580
g34
(g35
g36
(lp581
g34
(citchat.storage.templates
MassivePlatform
p582
g39
(dp583
VUserName
p584
V@91c104cd1e0b4066de97b94b51118561
p585
sVCity
p586
V\u5e7f\u5dde
p587
sVSnsFlag
p588
I0
sVDisplayName
p589
g52
sVUniFriend
p590
I0
sVMemberCount
p591
I0
sVOwnerUin
p592
I0
sVMemberList
p593
g50
sVAlias
p594
g52
sVPYQuanPin
p595
Vgongzhongpingtaianquanzhushou
p596
sVSignature
p597
V\u63d0\u4f9b\u5fae\u4fe1\u516c\u4f17\u53f7\u767b\u5f55\u548c\u7fa4\u53d1\u7b49\u5b89\u5168\u64cd\u4f5c\uff0c\u5728\u624b\u673a\u4e0a\u67e5\u6536\u6d88\u606f\u3001\u8bc4\u8bba\u3001\u8d5e\u8d4f\uff0c\u65b0\u5efa\u7fa4\u53d1\u548c\u67e5\u770b\u7fa4\u53d1\u5386\u53f2\u3002
p598
sVRemarkPYInitial
p599
g52
sVContactFlag
p600
I3
sVUin
p601
I0
sVNickName
p602
V\u516c\u4f17\u5e73\u53f0\u5b89\u5168\u52a9\u624b
p603
sVAppAccountFlag
p604
I0
sVVerifyFlag
p605
I24
sVRemarkPYQuanPin
p606
g52
sVHeadImgUrl
p607
V/cgi-bin/mmwebwx-bin/webwxgeticon?seq=600880067&username=@91c104cd1e0b4066de97b94b51118561&skey=@crypt_bda10ae4_d3f987aca957fa0e9de79885427288fe
p608
sVKeyWord
p609
Vmph
p610
sVProvince
p611
V\u5e7f\u4e1c
p612
sVPYInitial
p613
VGZPTAQZS
p614
sVRemarkName
p615
g52
sVIsOwner
p616
I0
sVSex
p617
I0
sVStarFriend
p618
I0
sVHideInputBarFlag
p619
I0
sVChatRoomId
p620
I0
sVEncryChatRoomId
p621
g52
sVAttrStatus
p622
I98459
sVStatues
p623
I0
stp624
Rp625
I1
bag34
(g582
g39
(dp626
VUserName
p627
V@886ed5b731e08619c53d93b7a57621e1
p628
sVCity
p629
V\u897f\u57ce
p630
sVSnsFlag
p631
I0
sVDisplayName
p632
g52
sVUniFriend
p633
I0
sVMemberCount
p634
I0
sVOwnerUin
p635
I0
sVMemberList
p636
g50
sVAlias
p637
VChinaUnicom800010010
p638
sVPYQuanPin
p639
Vzhongguoliantong
p640
sVSignature
p641
V\u4e2d\u56fd\u8054\u901a\u5fae\u4fe1\u8425\u4e1a\u5385\uff0c\u4fbf\u6377\u968f\u8eab\uff0c\u67e5\u8be2\u529e\u7406\u4e00\u952e\u641e\u5b9a\uff0c\u8fd8\u6709\u5ba2\u670dMM\u8d34\u5fc3\u89e3\u5fe7\uff0c\u66f4\u591a\u8d44\u8baf\u63a8\u8350\u4e0e\u60a8\u5206\u4eab\u3002\u656c\u8bf7\u5149\u4e34\uff0c\u671f\u5f85\u60ca\u559c\uff01
p642
sVRemarkPYInitial
p643
g52
sVContactFlag
p644
I3
sVUin
p645
I0
sVNickName
p646
V\u4e2d\u56fd\u8054\u901a
p647
sVAppAccountFlag
p648
I0
sVVerifyFlag
p649
I24
sVRemarkPYQuanPin
p650
g52
sVHeadImgUrl
p651
V/cgi-bin/mmwebwx-bin/webwxgeticon?seq=603850307&username=@886ed5b731e08619c53d93b7a57621e1&skey=@crypt_bda10ae4_d3f987aca957fa0e9de79885427288fe
p652
sVKeyWord
p653
Vgh_
p654
sVProvince
p655
V\u5317\u4eac
p656
sVPYInitial
p657
VZGLT
p658
sVRemarkName
p659
g52
sVIsOwner
p660
I0
sVSex
p661
I0
sVStarFriend
p662
I0
sVHideInputBarFlag
p663
I0
sVChatRoomId
p664
I0
sVEncryChatRoomId
p665
g52
sVAttrStatus
p666
I0
sVStatues
p667
I0
stp668
Rp669
I1
batp670
Rp671
I1
bssS'loginInfo'
p672
(dp673
S'SyncKey'
p674
(dp675
VCount
p676
I4
sVList
p677
(lp678
(dp679
VVal
p680
I603850761
sVKey
p681
I1
sa(dp682
VVal
p683
I603851382
sVKey
p684
I2
sa(dp685
VVal
p686
I603851078
sVKey
p687
I3
sa(dp688
VVal
p689
I1493097162
sVKey
p690
I1000
sassS'syncUrl'
p691
S'https://webpush.wx2.qq.com/cgi-bin/mmwebwx-bin'
p692
sS'skey'
p693
V@crypt_bda10ae4_d3f987aca957fa0e9de79885427288fe
p694
sS'wxuin'
p695
V3413407412
p696
sS'synckey'
p697
S'1_603850761|2_603851382|3_603851078|1000_1493097162'
p698
sS'url'
p699
Vhttps://wx2.qq.com/cgi-bin/mmwebwx-bin
p700
sS'pass_ticket'
p701
V5zIDTNRkuIZIV8DoV7N5hAEnLGDoirpvyGVOhXT%2F%2BiFYnKY8QSU2I3gSI55vpVMP
p702
sS'deviceid'
p703
S'e432011610559117'
p704
sS'wxsid'
p705
VL32uCjbfDjgV3464
p706
sS'InviteStartCount'
p707
I40
sS'fileUrl'
p708
S'https://file.wx2.qq.com/cgi-bin/mmwebwx-bin'
p709
sS'BaseRequest'
p710
(dp711
g54
g696
sS'Skey'
p712
g694
sS'DeviceID'
p713
g702
sS'Sid'
p714
g706
ssS'User'
p715
g34
(g38
g39
(dp716
g41
g31
sg42
g43
sg44
g43
sg45
I0
sg47
g50
sg51
g52
sg53
g52
sg77
I0
sg55
I0
sg56
I0
sg57
g43
sg58
g43
sg59
g52
sg60
g52
sg61
I0
sg62
I0
sg63
I1
sg64
g43
sg65
I0
sg68
I0
sg66
I0
sg67
I0
sg46
I0
sg69
g43
sg70
g52
sg71
I0
sg72
g73
sg74
g52
sg75
g76
sg54
I3413407412
sg78
I0
sg79
I0
stp717
Rp718
I1
bss.