(dp0
S'cookies'
p1
(dp2
S'wxloadtime'
p3
S'1493898528'
p4
sS'webwx_data_ticket'
p5
S'gSeHL8X5EdPcTM5Mqe8BwRa8'
p6
sS'wxuin'
p7
S'3413407412'
p8
sS'login_frequency'
p9
S'2'
p10
sS'MM_WX_NOTIFY_STATE'
p11
S'1'
p12
sS'MM_WX_SOUND_STATE'
p13
g12
sS'webwx_auth_ticket'
p14
S'CIsBEMX07oQEGoABa0vzGxetODP0agOvJ0q9Vsrb8crHWhK3OA/2sycGh0lQlfhdd9hvlixaxKzuO7yY4JagZBgUvEaEZ/BBGSoSQLEc4augePCpYSWNBAWlZt7U9Y6erR/l0+C/U3Wqh7QqML6S/20zoqn43/GPhe6VxttyjyijN4yz+H9w7lsF18M='
p15
sS'last_wxuin'
p16
S'3413407412'
p17
sS'webwxuvid'
p18
S'41520c81ebbb9c0f70a7094c1f9c9176e4091e27c8c21ae23abea9e8eb5e46f281ca79188377c1f2172acda3b637dd64'
p19
sS'wxpluginkey'
p20
S'1493892769'
p21
sS'wxsid'
p22
S'pgt7SNiATc1liH8X'
p23
sS'mm_lang'
p24
S'zh_CN'
p25
ssS'version'
p26
S'1.3.5'
p27
sS'storage'
p28
(dp29
S'userName'
p30
V@fd4aa9beebeb2d9b898aa44a2f36e12c75dfb661d295da5340871d59c511cf57
p31
sS'lastInputUserName'
p32
NsS'memberList'
p33
ccopy_reg
_reconstructor
p34
(cchatcore.storage.templates
ContactList
p35
c__builtin__
list
p36
(lp37
g34
(cchatcore.storage.templates
User
p38
c__builtin__
dict
p39
(dp40
S'UserName'
p41
g31
sS'City'
p42
S''
p43
sS'DisplayName'
p44
g43
sS'UniFriend'
p45
I0
sS'OwnerUin'
p46
I0
sS'MemberList'
p47
g34
(g35
g36
(lp48
tp49
Rp50
I1
bsS'PYQuanPin'
p51
V
p52
sS'RemarkPYInitial'
p53
g52
sS'Uin'
p54
I3413407412
sS'AppAccountFlag'
p55
I0
sS'VerifyFlag'
p56
I0
sS'Province'
p57
g43
sS'KeyWord'
p58
g43
sS'RemarkName'
p59
g52
sS'PYInitial'
p60
g52
sS'ChatRoomId'
p61
I0
sS'HideInputBarFlag'
p62
I0
sVHeadImgFlag
p63
I1
sS'EncryChatRoomId'
p64
g43
sS'AttrStatus'
p65
I0
sS'SnsFlag'
p66
I0
sS'MemberCount'
p67
I0
sVWebWxPluginSwitch
p68
I0
sS'Alias'
p69
g43
sS'Signature'
p70
g52
sS'ContactFlag'
p71
I0
sS'NickName'
p72
VAran
p73
sS'RemarkPYQuanPin'
p74
g52
sS'HeadImgUrl'
p75
V/cgi-bin/mmwebwx-bin/webwxgeticon?seq=513206062&username=@fd4aa9beebeb2d9b898aa44a2f36e12c75dfb661d295da5340871d59c511cf57&skey=@crypt_bda10ae4_2dd718035087ebcc241b70132a145726
p76
sS'Sex'
p77
I0
sS'StarFriend'
p78
I0
sS'Statues'
p79
I0
stp80
Rp81
I1
bag34
(g38
g39
(dp82
VUserName
p83
V@963f815483c291bfaed99e05e579502435e6730d915353a4227aa4c7af84abf6
p84
sVCity
p85
g52
sVSnsFlag
p86
I49
sVDisplayName
p87
g52
sVUniFriend
p88
I0
sVMemberCount
p89
I0
sVOwnerUin
p90
I0
sVMemberList
p91
g50
sVAlias
p92
g52
sVPYQuanPin
p93
Vluojunyu
p94
sVSignature
p95
V\u5170\u5c3c\u65af\u7279\u6709\u89c9\u5fc5\u7761
p96
sVRemarkPYInitial
p97
g52
sVContactFlag
p98
I3
sVUin
p99
I0
sVNickName
p100
V\u7f57\u4fca\u5b87
p101
sVAppAccountFlag
p102
I0
sVVerifyFlag
p103
I0
sVRemarkPYQuanPin
p104
g52
sVHeadImgUrl
p105
V/cgi-bin/mmwebwx-bin/webwxgeticon?seq=606872127&username=@963f815483c291bfaed99e05e579502435e6730d915353a4227aa4c7af84abf6&skey=@crypt_bda10ae4_2dd718035087ebcc241b70132a145726
p106
sVKeyWord
p107
VSil
p108
sVProvince
p109
g52
sVPYInitial
p110
VLJY
p111
sVRemarkName
p112
g52
sVIsOwner
p113
I0
sVSex
p114
I1
sVStarFriend
p115
I0
sVHideInputBarFlag
p116
I0
sVChatRoomId
p117
I0
sVEncryChatRoomId
p118
g52
sVAttrStatus
p119
I106747
sVStatues
p120
I0
stp121
Rp122
I1
bag34
(g38
g39
(dp123
VUserName
p124
V@a90d06fdc36ce2930a9cfab8d5108e7650dac61a87e95a3881d669443868ea81
p125
sVCity
p126
V\u4e1c\u57ce
p127
sVSnsFlag
p128
I49
sVDisplayName
p129
g52
sVUniFriend
p130
I0
sVMemberCount
p131
I0
sVOwnerUin
p132
I0
sVMemberList
p133
g50
sVAlias
p134
g52
sVPYQuanPin
p135
VYat3s
p136
sVSignature
p137
V\u4e00\u53ea\u7231\u73a9\u7684\u7a0b\u5e8f\u6c6a<span class="emoji emoji1f436"></span>
p138
sVRemarkPYInitial
p139
g52
sVContactFlag
p140
I3
sVUin
p141
I0
sVNickName
p142
VYat3s
p143
sVAppAccountFlag
p144
I0
sVVerifyFlag
p145
I0
sVRemarkPYQuanPin
p146
g52
sVHeadImgUrl
p147
V/cgi-bin/mmwebwx-bin/webwxgeticon?seq=603850332&username=@a90d06fdc36ce2930a9cfab8d5108e7650dac61a87e95a3881d669443868ea81&skey=@crypt_bda10ae4_2dd718035087ebcc241b70132a145726
p148
sVKeyWord
p149
g52
sVProvince
p150
V\u5317\u4eac
p151
sVPYInitial
p152
VYAT3S
p153
sVRemarkName
p154
g52
sVIsOwner
p155
I0
sVSex
p156
I1
sVStarFriend
p157
I0
sVHideInputBarFlag
p158
I0
sVChatRoomId
p159
I0
sVEncryChatRoomId
p160
g52
sVAttrStatus
p161
I37851239
sVStatues
p162
I0
stp163
Rp164
I1
bag34
(g38
g39
(dp165
VUserName
p166
V@4da86a98b7969c1f50d4a4ff912742fa81d447c17a38f8c6dcb87c42414741a8
p167
sVCity
p168
V\u8d63\u5dde
p169
sVSnsFlag
p170
I49
sVDisplayName
p171
g52
sVUniFriend
p172
I0
sVMemberCount
p173
I0
sVOwnerUin
p174
I0
sVMemberList
p175
g50
sVAlias
p176
g52
sVPYQuanPin
p177
Vxiaoliao15807504515
p178
sVSignature
p179
V\u4e0b\u8f88\u5b50\u6295\u80ce\u505a\u4e2a\u7537\u4eba\uff0c\u5a36\u4e2a\u50cf\u6211\u8fd9\u6837\u7684\u5973\u4eba\U0001f64815807504515
p180
sVRemarkPYInitial
p181
VELAINE
p182
sVContactFlag
p183
I3
sVUin
p184
I0
sVNickName
p185
V\u5c0f\u5ed6 15807504515
p186
sVAppAccountFlag
p187
I0
sVVerifyFlag
p188
I0
sVRemarkPYQuanPin
p189
VElaine
p190
sVHeadImgUrl
p191
V/cgi-bin/mmwebwx-bin/webwxgeticon?seq=603850127&username=@4da86a98b7969c1f50d4a4ff912742fa81d447c17a38f8c6dcb87c42414741a8&skey=@crypt_bda10ae4_2dd718035087ebcc241b70132a145726
p192
sVKeyWord
p193
g52
sVProvince
p194
V\u6c5f\u897f
p195
sVPYInitial
p196
VXL15807504515
p197
sVRemarkName
p198
VElaine
p199
sVIsOwner
p200
I0
sVSex
p201
I2
sVStarFriend
p202
I0
sVHideInputBarFlag
p203
I0
sVChatRoomId
p204
I0
sVEncryChatRoomId
p205
g52
sVAttrStatus
p206
I69669
sVStatues
p207
I0
stp208
Rp209
I1
bag34
(g38
g39
(dp210
VUserName
p211
V@40f123d8343167b81649b58093471e39
p212
sVCity
p213
V\u8475\u9752\u533a
p214
sVSnsFlag
p215
I49
sVDisplayName
p216
g52
sVUniFriend
p217
I0
sVMemberCount
p218
I0
sVOwnerUin
p219
I0
sVMemberList
p220
g50
sVAlias
p221
g52
sVPYQuanPin
p222
Vspanclassemojiemoji1f335spanyezhier
p223
sVSignature
p224
V\u65f6\u5149\u6f2b\u957f\uff0c\u6709\u6211\u522b\u614c\u3002<span class="emoji emoji1f618"></span>
p225
sVRemarkPYInitial
p226
g52
sVContactFlag
p227
I3
sVUin
p228
I0
sVNickName
p229
V\U0001f335\u6930\u6c41\u513f
p230
sVAppAccountFlag
p231
I0
sVVerifyFlag
p232
I0
sVRemarkPYQuanPin
p233
g52
sVHeadImgUrl
p234
V/cgi-bin/mmwebwx-bin/webwxgeticon?seq=603850968&username=@40f123d8343167b81649b58093471e39&skey=@crypt_bda10ae4_2dd718035087ebcc241b70132a145726
p235
sVKeyWord
p236
Vyev
p237
sVProvince
p238
V\u9999\u6e2f
p239
sVPYInitial
p240
VSPANCLASSEMOJIEMOJI1F335SPANYZE
p241
sVRemarkName
p242
g52
sVIsOwner
p243
I0
sVSex
p244
I2
sVStarFriend
p245
I0
sVHideInputBarFlag
p246
I0
sVChatRoomId
p247
I0
sVEncryChatRoomId
p248
g52
sVAttrStatus
p249
I67623
sVStatues
p250
I0
stp251
Rp252
I1
bag34
(g38
g39
(dp253
VUserName
p254
V@be1ba9102fe5319d5732f561f384fafca77b8554cbbdb3530d2945f6c8456e79
p255
sVCity
p256
g52
sVSnsFlag
p257
I17
sVDisplayName
p258
g52
sVUniFriend
p259
I0
sVMemberCount
p260
I0
sVOwnerUin
p261
I0
sVMemberList
p262
g50
sVAlias
p263
g52
sVPYQuanPin
p264
Vxiaodeqiu
p265
sVSignature
p266
V\u5b66\u800c\u4e0d\u601d\u5219\u7f54\uff0c\u54c8\u54c8
p267
sVRemarkPYInitial
p268
g52
sVContactFlag
p269
I3
sVUin
p270
I0
sVNickName
p271
V\u5c0f\u5730\u7403
p272
sVAppAccountFlag
p273
I0
sVVerifyFlag
p274
I0
sVRemarkPYQuanPin
p275
g52
sVHeadImgUrl
p276
V/cgi-bin/mmwebwx-bin/webwxgeticon?seq=603851078&username=@be1ba9102fe5319d5732f561f384fafca77b8554cbbdb3530d2945f6c8456e79&skey=@crypt_bda10ae4_2dd718035087ebcc241b70132a145726
p277
sVKeyWord
p278
g52
sVProvince
p279
VFrankfurt
p280
sVPYInitial
p281
VXDQ
p282
sVRemarkName
p283
g52
sVIsOwner
p284
I0
sVSex
p285
I1
sVStarFriend
p286
I0
sVHideInputBarFlag
p287
I0
sVChatRoomId
p288
I0
sVEncryChatRoomId
p289
g52
sVAttrStatus
p290
I33789989
sVStatues
p291
I0
stp292
Rp293
I1
bag34
(g38
g39
(dp294
VUserName
p295
V@7ee54b1b0280fef0a3edc4fc4772968afb48e53c5ef69b0806d1af1914fac872
p296
sVCity
p297
g52
sVSnsFlag
p298
I49
sVDisplayName
p299
g52
sVUniFriend
p300
I0
sVMemberCount
p301
I0
sVOwnerUin
p302
I0
sVMemberList
p303
g50
sVAlias
p304
g52
sVPYQuanPin
p305
Vechoxiaomeng
p306
sVSignature
p307
V\u65e2\u7136\u7434\u745f\u8d77
p308
sVRemarkPYInitial
p309
g52
sVContactFlag
p310
I3
sVUin
p311
I0
sVNickName
p312
Vecho\u5c0f\u840c
p313
sVAppAccountFlag
p314
I0
sVVerifyFlag
p315
I0
sVRemarkPYQuanPin
p316
g52
sVHeadImgUrl
p317
V/cgi-bin/mmwebwx-bin/webwxgeticon?seq=603851910&username=@7ee54b1b0280fef0a3edc4fc4772968afb48e53c5ef69b0806d1af1914fac872&skey=@crypt_bda10ae4_2dd718035087ebcc241b70132a145726
p318
sVKeyWord
p319
g52
sVProvince
p320
V\u5317\u4eac
p321
sVPYInitial
p322
VECHOXM
p323
sVRemarkName
p324
g52
sVIsOwner
p325
I0
sVSex
p326
I2
sVStarFriend
p327
I0
sVHideInputBarFlag
p328
I0
sVChatRoomId
p329
I0
sVEncryChatRoomId
p330
g52
sVAttrStatus
p331
I67224677
sVStatues
p332
I0
stp333
Rp334
I1
bag34
(g38
g39
(dp335
VUserName
p336
V@8f5cdfa953a0c3b3c6281062045ae7ebe591b224f8eec9c7bfa19234ca31c38b
p337
sVCity
p338
g52
sVSnsFlag
p339
I17
sVDisplayName
p340
g52
sVUniFriend
p341
I0
sVMemberCount
p342
I0
sVOwnerUin
p343
I0
sVMemberList
p344
g50
sVAlias
p345
g52
sVPYQuanPin
p346
Vmeiguishilichunfeng
p347
sVSignature
p348
V\u800c\u4eca\u6811\u58ee\u5fd7        \u4ee5\u5f85\u626c\u56fd\u5a01
p349
sVRemarkPYInitial
p350
g52
sVContactFlag
p351
I3
sVUin
p352
I0
sVNickName
p353
V[\u73ab\u7470]\u5341\u91cc\u6625\u98ce
p354
sVAppAccountFlag
p355
I0
sVVerifyFlag
p356
I0
sVRemarkPYQuanPin
p357
g52
sVHeadImgUrl
p358
V/cgi-bin/mmwebwx-bin/webwxgeticon?seq=603852839&username=@8f5cdfa953a0c3b3c6281062045ae7ebe591b224f8eec9c7bfa19234ca31c38b&skey=@crypt_bda10ae4_2dd718035087ebcc241b70132a145726
p359
sVKeyWord
p360
g52
sVProvince
p361
VParis
p362
sVPYInitial
p363
VMGSLCF
p364
sVRemarkName
p365
g52
sVIsOwner
p366
I0
sVSex
p367
I1
sVStarFriend
p368
I0
sVHideInputBarFlag
p369
I0
sVChatRoomId
p370
I0
sVEncryChatRoomId
p371
g52
sVAttrStatus
p372
I102439
sVStatues
p373
I0
stp374
Rp375
I1
bag34
(g38
g39
(dp376
VUserName
p377
V@5f0490e0b1dec3c0c560f35158109f4c
p378
sVCity
p379
V\u671d\u9633
p380
sVSnsFlag
p381
I49
sVDisplayName
p382
g52
sVUniFriend
p383
I0
sVMemberCount
p384
I0
sVOwnerUin
p385
I0
sVMemberList
p386
g50
sVAlias
p387
g52
sVPYQuanPin
p388
Vspanclassemojiemoji1f343span
p389
sVSignature
p390
V<span class="emoji emoji2708"></span>\ufe0f
p391
sVRemarkPYInitial
p392
g52
sVContactFlag
p393
I3
sVUin
p394
I0
sVNickName
p395
V\U0001f343
p396
sVAppAccountFlag
p397
I0
sVVerifyFlag
p398
I0
sVRemarkPYQuanPin
p399
g52
sVHeadImgUrl
p400
V/cgi-bin/mmwebwx-bin/webwxgeticon?seq=606870188&username=@5f0490e0b1dec3c0c560f35158109f4c&skey=@crypt_bda10ae4_2dd718035087ebcc241b70132a145726
p401
sVKeyWord
p402
VYE1
p403
sVProvince
p404
V\u5317\u4eac
p405
sVPYInitial
p406
VSPANCLASSEMOJIEMOJI1F343SPAN
p407
sVRemarkName
p408
g52
sVIsOwner
p409
I0
sVSex
p410
I2
sVStarFriend
p411
I0
sVHideInputBarFlag
p412
I0
sVChatRoomId
p413
I0
sVEncryChatRoomId
p414
g52
sVAttrStatus
p415
I229863
sVStatues
p416
I0
stp417
Rp418
I1
bag34
(g38
g39
(dp419
VUserName
p420
V@c9a7b83dd4a7a9806de1a67b07d6073800fe3af981d216e482bf6cdcc610f747
p421
sVCity
p422
V\u671d\u9633
p423
sVSnsFlag
p424
I17
sVDisplayName
p425
g52
sVUniFriend
p426
I0
sVMemberCount
p427
I0
sVOwnerUin
p428
I0
sVMemberList
p429
g50
sVAlias
p430
g52
sVPYQuanPin
p431
VKerry
p432
sVSignature
p433
V\u4ee5\u68a6\u4e3a\u9a6c\uff0c\u4e0d\u8d1f\u97f6\u534e
p434
sVRemarkPYInitial
p435
g52
sVContactFlag
p436
I3
sVUin
p437
I0
sVNickName
p438
VKerry
p439
sVAppAccountFlag
p440
I0
sVVerifyFlag
p441
I0
sVRemarkPYQuanPin
p442
g52
sVHeadImgUrl
p443
V/cgi-bin/mmwebwx-bin/webwxgeticon?seq=603850763&username=@c9a7b83dd4a7a9806de1a67b07d6073800fe3af981d216e482bf6cdcc610f747&skey=@crypt_bda10ae4_2dd718035087ebcc241b70132a145726
p444
sVKeyWord
p445
g52
sVProvince
p446
V\u5317\u4eac
p447
sVPYInitial
p448
VKERRY
p449
sVRemarkName
p450
g52
sVIsOwner
p451
I0
sVSex
p452
I2
sVStarFriend
p453
I0
sVHideInputBarFlag
p454
I0
sVChatRoomId
p455
I0
sVEncryChatRoomId
p456
g52
sVAttrStatus
p457
I33674359
sVStatues
p458
I0
stp459
Rp460
I1
bag34
(g38
g39
(dp461
VUserName
p462
V@e00cb2b67d97c94c250f8b3e488131ed016eef20e21d224cccd586b6f7b2bc2d
p463
sVCity
p464
g52
sVSnsFlag
p465
I17
sVDisplayName
p466
g52
sVUniFriend
p467
I0
sVMemberCount
p468
I0
sVOwnerUin
p469
I0
sVMemberList
p470
g50
sVAlias
p471
g52
sVPYQuanPin
p472
Vspanclassemojiemoji1f33espancaoyispanclassemojiemoji1f33espan
p473
sVSignature
p474
V\u6709\u82b1\u6709\u6708\u6709\u697c\u53f0 \u4e0d\u98ce\u6d41\u5904\u4e5f\u98ce\u6d41
p475
sVRemarkPYInitial
p476
g52
sVContactFlag
p477
I3
sVUin
p478
I0
sVNickName
p479
V\U0001f33e\u8349\u4e59\U0001f33e
p480
sVAppAccountFlag
p481
I0
sVVerifyFlag
p482
I0
sVRemarkPYQuanPin
p483
g52
sVHeadImgUrl
p484
V/cgi-bin/mmwebwx-bin/webwxgeticon?seq=606870864&username=@e00cb2b67d97c94c250f8b3e488131ed016eef20e21d224cccd586b6f7b2bc2d&skey=@crypt_bda10ae4_2dd718035087ebcc241b70132a145726
p485
sVKeyWord
p486
g52
sVProvince
p487
g52
sVPYInitial
p488
VSPANCLASSEMOJIEMOJI1F33ESPANCYSPANCLASSEMOJIEMOJI1F33ESPAN
p489
sVRemarkName
p490
g52
sVIsOwner
p491
I0
sVSex
p492
I2
sVStarFriend
p493
I0
sVHideInputBarFlag
p494
I0
sVChatRoomId
p495
I0
sVEncryChatRoomId
p496
g52
sVAttrStatus
p497
I33785893
sVStatues
p498
I0
stp499
Rp500
I1
batp501
Rp502
I1
bsS'chatroomList'
p503
g34
(g35
g36
(lp504
g34
(cchatcore.storage.templates
Chatroom
p505
g39
(dp506
VUserName
p507
V@@bec518ec854b5d0087930dd45513a52cc7f88d0e9dc254d0bd1f804c1b242889
p508
sVCity
p509
g52
sVDisplayName
p510
g52
sVUniFriend
p511
I0
sS'Self'
p512
g34
(g38
g39
(dp513
g41
g31
sg42
g43
sg44
g43
sg45
I0
sg46
I0
sg47
g34
(g35
g36
(lp514
tp515
Rp516
I1
bsg51
g52
sg53
g52
sg54
I3413407412
sg55
I0
sg56
I0
sg57
g43
sg58
g43
sg59
g52
sg60
g52
sg61
I0
sg62
I0
sg63
I1
sg64
g43
sg65
I0
sg66
I0
sg67
I0
sg68
I0
sg69
g43
sg70
g52
sg71
I0
sg72
g73
sg74
g52
sg75
g76
sg77
I0
sg78
I0
sg79
I0
stp517
Rp518
I1
bsVMemberList
p519
g34
(g35
g36
(lp520
tp521
Rp522
I1
bsVPYQuanPin
p523
g52
sVRemarkPYInitial
p524
g52
sVSex
p525
I0
sVAppAccountFlag
p526
I0
sVVerifyFlag
p527
I0
sVProvince
p528
g52
sVKeyWord
p529
g52
sVRemarkName
p530
g52
sVPYInitial
p531
g52
sVIsOwner
p532
I0
sVChatRoomId
p533
I0
sVHideInputBarFlag
p534
I0
sVEncryChatRoomId
p535
g52
sVAttrStatus
p536
I0
sVSnsFlag
p537
I0
sVMemberCount
p538
I3
sVOwnerUin
p539
I0
sVAlias
p540
g52
sS'IsAdmin'
p541
NsVSignature
p542
g52
sVContactFlag
p543
I0
sVNickName
p544
V\u7f57\u4fca\u5b87,Yat3s,Aran
p545
sVRemarkPYQuanPin
p546
g52
sVHeadImgUrl
p547
V/cgi-bin/mmwebwx-bin/webwxgetheadimg?seq=0&username=@@bec518ec854b5d0087930dd45513a52cc7f88d0e9dc254d0bd1f804c1b242889&skey=@crypt_bda10ae4_2dd718035087ebcc241b70132a145726
p548
sVUin
p549
I0
sVStarFriend
p550
I0
sVStatues
p551
I1
stp552
Rp553
I1
bag34
(g505
g39
(dp554
VUserName
p555
V@@b5a7bc94410db6a15eff1a0cf85f8cf04b0744722efa4c9c8053ee45fe0a9ee0
p556
sVCity
p557
g52
sVDisplayName
p558
g52
sVUniFriend
p559
I0
sg512
g34
(g38
g39
(dp560
g41
g31
sg42
g43
sg44
g43
sg45
I0
sg46
I0
sg47
g34
(g35
g36
(lp561
tp562
Rp563
I1
bsg51
g52
sg53
g52
sg54
I3413407412
sg55
I0
sg56
I0
sg57
g43
sg58
g43
sg59
g52
sg60
g52
sg61
I0
sg62
I0
sg63
I1
sg64
g43
sg65
I0
sg66
I0
sg67
I0
sg68
I0
sg69
g43
sg70
g52
sg71
I0
sg72
g73
sg74
g52
sg75
g76
sg77
I0
sg78
I0
sg79
I0
stp564
Rp565
I1
bsVMemberList
p566
g34
(g35
g36
(lp567
tp568
Rp569
I1
bsVPYQuanPin
p570
g52
sVRemarkPYInitial
p571
g52
sVSex
p572
I0
sVAppAccountFlag
p573
I0
sVVerifyFlag
p574
I0
sVProvince
p575
g52
sVKeyWord
p576
g52
sVRemarkName
p577
g52
sVPYInitial
p578
g52
sVIsOwner
p579
I0
sVChatRoomId
p580
I0
sVHideInputBarFlag
p581
I0
sVEncryChatRoomId
p582
g52
sVAttrStatus
p583
I0
sVSnsFlag
p584
I0
sVMemberCount
p585
I3
sVOwnerUin
p586
I0
sVAlias
p587
g52
sg541
NsVSignature
p588
g52
sVContactFlag
p589
I0
sVNickName
p590
V\u53f6\u840c\u7136
p591
sVRemarkPYQuanPin
p592
g52
sVHeadImgUrl
p593
V/cgi-bin/mmwebwx-bin/webwxgetheadimg?seq=0&username=@@b5a7bc94410db6a15eff1a0cf85f8cf04b0744722efa4c9c8053ee45fe0a9ee0&skey=@crypt_bda10ae4_2dd718035087ebcc241b70132a145726
p594
sVUin
p595
I0
sVStarFriend
p596
I0
sVStatues
p597
I1
stp598
Rp599
I1
bag34
(g505
g39
(dp600
VUserName
p601
V@@c2de0e330325b760f633deb521a1e17f7a83883faa66d5cab7be73bf5f7271aa
p602
sVCity
p603
g52
sVDisplayName
p604
g52
sVUniFriend
p605
I0
sg512
g34
(g38
g39
(dp606
g41
g31
sg42
g43
sg44
g43
sg45
I0
sg46
I0
sg47
g34
(g35
g36
(lp607
tp608
Rp609
I1
bsg51
g52
sg53
g52
sg54
I3413407412
sg55
I0
sg56
I0
sg57
g43
sg58
g43
sg59
g52
sg60
g52
sg61
I0
sg62
I0
sg63
I1
sg64
g43
sg65
I0
sg66
I0
sg67
I0
sg68
I0
sg69
g43
sg70
g52
sg71
I0
sg72
g73
sg74
g52
sg75
g76
sg77
I0
sg78
I0
sg79
I0
stp610
Rp611
I1
bsVMemberList
p612
g34
(g35
g36
(lp613
tp614
Rp615
I1
bsVPYQuanPin
p616
g52
sVRemarkPYInitial
p617
g52
sVSex
p618
I0
sVAppAccountFlag
p619
I0
sVVerifyFlag
p620
I0
sVProvince
p621
g52
sVKeyWord
p622
g52
sVRemarkName
p623
g52
sVPYInitial
p624
g52
sVIsOwner
p625
I0
sVChatRoomId
p626
I0
sVHideInputBarFlag
p627
I0
sVEncryChatRoomId
p628
g52
sVAttrStatus
p629
I0
sVSnsFlag
p630
I0
sVMemberCount
p631
I3
sVOwnerUin
p632
I0
sVAlias
p633
g52
sg541
NsVSignature
p634
g52
sVContactFlag
p635
I0
sVNickName
p636
VYat3s,Meng,Aran
p637
sVRemarkPYQuanPin
p638
g52
sVHeadImgUrl
p639
V/cgi-bin/mmwebwx-bin/webwxgetheadimg?seq=0&username=@@c2de0e330325b760f633deb521a1e17f7a83883faa66d5cab7be73bf5f7271aa&skey=@crypt_bda10ae4_2dd718035087ebcc241b70132a145726
p640
sVUin
p641
I0
sVStarFriend
p642
I0
sVStatues
p643
I1
stp644
Rp645
I1
bag34
(g505
g39
(dp646
VUserName
p647
V@@abc32f28ebf666a2283023f75014e1e6e99bc3f51092facafae23e7a94792ad8
p648
sVCity
p649
g52
sVDisplayName
p650
g52
sVUniFriend
p651
I0
sg512
g34
(g38
g39
(dp652
g41
g31
sg42
g43
sg44
g43
sg45
I0
sg46
I0
sg47
g34
(g35
g36
(lp653
tp654
Rp655
I1
bsg51
g52
sg53
g52
sg54
I3413407412
sg55
I0
sg56
I0
sg57
g43
sg58
g43
sg59
g52
sg60
g52
sg61
I0
sg62
I0
sg63
I1
sg64
g43
sg65
I0
sg66
I0
sg67
I0
sg68
I0
sg69
g43
sg70
g52
sg71
I0
sg72
g73
sg74
g52
sg75
g76
sg77
I0
sg78
I0
sg79
I0
stp656
Rp657
I1
bsVMemberList
p658
g34
(g35
g36
(lp659
tp660
Rp661
I1
bsVPYQuanPin
p662
g52
sVRemarkPYInitial
p663
g52
sVSex
p664
I0
sVAppAccountFlag
p665
I0
sVVerifyFlag
p666
I0
sVProvince
p667
g52
sVKeyWord
p668
g52
sVRemarkName
p669
g52
sVPYInitial
p670
g52
sVIsOwner
p671
I0
sVChatRoomId
p672
I0
sVHideInputBarFlag
p673
I0
sVEncryChatRoomId
p674
g52
sVAttrStatus
p675
I0
sVSnsFlag
p676
I0
sVMemberCount
p677
I8
sVOwnerUin
p678
I0
sVAlias
p679
g52
sg541
NsVSignature
p680
g52
sVContactFlag
p681
I2
sVNickName
p682
Vbdp\u79fb\u52a8\u7ec4
p683
sVRemarkPYQuanPin
p684
g52
sVHeadImgUrl
p685
V/cgi-bin/mmwebwx-bin/webwxgetheadimg?seq=606871315&username=@@abc32f28ebf666a2283023f75014e1e6e99bc3f51092facafae23e7a94792ad8&skey=@crypt_bda10ae4_2dd718035087ebcc241b70132a145726
p686
sVUin
p687
I0
sVStarFriend
p688
I0
sVStatues
p689
I1
stp690
Rp691
I1
bag34
(g505
g39
(dp692
VUserName
p693
V@@4178dd1d42a05e4d44d973a35345e6d3b232d12e4331c5881f51e3e121f1500d
p694
sVCity
p695
g52
sVDisplayName
p696
g52
sVUniFriend
p697
I0
sg512
g34
(g38
g39
(dp698
g41
g31
sg42
g43
sg44
g43
sg45
I0
sg46
I0
sg47
g34
(g35
g36
(lp699
tp700
Rp701
I1
bsg51
g52
sg53
g52
sg54
I3413407412
sg55
I0
sg56
I0
sg57
g43
sg58
g43
sg59
g52
sg60
g52
sg61
I0
sg62
I0
sg63
I1
sg64
g43
sg65
I0
sg66
I0
sg67
I0
sg68
I0
sg69
g43
sg70
g52
sg71
I0
sg72
g73
sg74
g52
sg75
g76
sg77
I0
sg78
I0
sg79
I0
stp702
Rp703
I1
bsVMemberList
p704
g34
(g35
g36
(lp705
tp706
Rp707
I1
bsVPYQuanPin
p708
g52
sVRemarkPYInitial
p709
g52
sVSex
p710
I0
sVAppAccountFlag
p711
I0
sVVerifyFlag
p712
I0
sVProvince
p713
g52
sVKeyWord
p714
g52
sVRemarkName
p715
g52
sVPYInitial
p716
g52
sVIsOwner
p717
I0
sVChatRoomId
p718
I0
sVHideInputBarFlag
p719
I0
sVEncryChatRoomId
p720
g52
sVAttrStatus
p721
I0
sVSnsFlag
p722
I0
sVMemberCount
p723
I8
sVOwnerUin
p724
I0
sVAlias
p725
g52
sg541
NsVSignature
p726
g52
sVContactFlag
p727
I2
sVNickName
p728
V\u7ea2\u5305\u96e8
p729
sVRemarkPYQuanPin
p730
g52
sVHeadImgUrl
p731
V/cgi-bin/mmwebwx-bin/webwxgetheadimg?seq=603850892&username=@@4178dd1d42a05e4d44d973a35345e6d3b232d12e4331c5881f51e3e121f1500d&skey=@crypt_bda10ae4_2dd718035087ebcc241b70132a145726
p732
sVUin
p733
I0
sVStarFriend
p734
I0
sVStatues
p735
I1
stp736
Rp737
I1
bag34
(g505
g39
(dp738
VUserName
p739
V@@b49501e733dba28e687922bfc704e197b0fd1a40fca4dc25dfae7541b84dc80d
p740
sVCity
p741
g52
sVDisplayName
p742
g52
sVUniFriend
p743
I0
sg512
g34
(g38
g39
(dp744
g41
g31
sg42
g43
sg44
g43
sg45
I0
sg46
I0
sg47
g34
(g35
g36
(lp745
tp746
Rp747
I1
bsg51
g52
sg53
g52
sg54
I3413407412
sg55
I0
sg56
I0
sg57
g43
sg58
g43
sg59
g52
sg60
g52
sg61
I0
sg62
I0
sg63
I1
sg64
g43
sg65
I0
sg66
I0
sg67
I0
sg68
I0
sg69
g43
sg70
g52
sg71
I0
sg72
g73
sg74
g52
sg75
g76
sg77
I0
sg78
I0
sg79
I0
stp748
Rp749
I1
bsVMemberList
p750
g34
(g35
g36
(lp751
tp752
Rp753
I1
bsVPYQuanPin
p754
g52
sVRemarkPYInitial
p755
g52
sVSex
p756
I0
sVAppAccountFlag
p757
I0
sVVerifyFlag
p758
I0
sVProvince
p759
g52
sVKeyWord
p760
g52
sVRemarkName
p761
g52
sVPYInitial
p762
g52
sVIsOwner
p763
I0
sVChatRoomId
p764
I0
sVHideInputBarFlag
p765
I0
sVEncryChatRoomId
p766
g52
sVAttrStatus
p767
I0
sVSnsFlag
p768
I0
sVMemberCount
p769
I10
sVOwnerUin
p770
I0
sVAlias
p771
g52
sg541
NsVSignature
p772
g52
sVContactFlag
p773
I0
sVNickName
p774
V\u5bbe\u679c\u8001\u55e8\uff0c\u5bbe\u679c\u4efd\u4f4e
p775
sVRemarkPYQuanPin
p776
g52
sVHeadImgUrl
p777
V/cgi-bin/mmwebwx-bin/webwxgetheadimg?seq=0&username=@@b49501e733dba28e687922bfc704e197b0fd1a40fca4dc25dfae7541b84dc80d&skey=@crypt_bda10ae4_2dd718035087ebcc241b70132a145726
p778
sVUin
p779
I0
sVStarFriend
p780
I0
sVStatues
p781
I0
stp782
Rp783
I1
batp784
Rp785
I1
bsS'nickName'
p786
g73
sS'mpList'
p787
g34
(g35
g36
(lp788
g34
(cchatcore.storage.templates
MassivePlatform
p789
g39
(dp790
VUserName
p791
V@3095fe0ec38480696b78fbb9b43094d8
p792
sVCity
p793
V\u5e7f\u5dde
p794
sVSnsFlag
p795
I0
sVDisplayName
p796
g52
sVUniFriend
p797
I0
sVMemberCount
p798
I0
sVOwnerUin
p799
I0
sVMemberList
p800
g50
sVAlias
p801
g52
sVPYQuanPin
p802
Vgongzhongpingtaianquanzhushou
p803
sVSignature
p804
V\u63d0\u4f9b\u5fae\u4fe1\u516c\u4f17\u53f7\u767b\u5f55\u548c\u7fa4\u53d1\u7b49\u5b89\u5168\u64cd\u4f5c\uff0c\u5728\u624b\u673a\u4e0a\u67e5\u6536\u6d88\u606f\u3001\u8bc4\u8bba\u3001\u8d5e\u8d4f\uff0c\u65b0\u5efa\u7fa4\u53d1\u548c\u67e5\u770b\u7fa4\u53d1\u5386\u53f2\u3002
p805
sVRemarkPYInitial
p806
g52
sVContactFlag
p807
I3
sVUin
p808
I0
sVNickName
p809
V\u516c\u4f17\u5e73\u53f0\u5b89\u5168\u52a9\u624b
p810
sVAppAccountFlag
p811
I0
sVVerifyFlag
p812
I24
sVRemarkPYQuanPin
p813
g52
sVHeadImgUrl
p814
V/cgi-bin/mmwebwx-bin/webwxgeticon?seq=600880067&username=@3095fe0ec38480696b78fbb9b43094d8&skey=@crypt_bda10ae4_2dd718035087ebcc241b70132a145726
p815
sVKeyWord
p816
Vmph
p817
sVProvince
p818
V\u5e7f\u4e1c
p819
sVPYInitial
p820
VGZPTAQZS
p821
sVRemarkName
p822
g52
sVIsOwner
p823
I0
sVSex
p824
I0
sVStarFriend
p825
I0
sVHideInputBarFlag
p826
I0
sVChatRoomId
p827
I0
sVEncryChatRoomId
p828
g52
sVAttrStatus
p829
I98459
sVStatues
p830
I0
stp831
Rp832
I1
bag34
(g789
g39
(dp833
VUserName
p834
V@026cb3fa57ff318e73c1ac25fe376ddc
p835
sVCity
p836
V\u897f\u57ce
p837
sVSnsFlag
p838
I0
sVDisplayName
p839
g52
sVUniFriend
p840
I0
sVMemberCount
p841
I0
sVOwnerUin
p842
I0
sVMemberList
p843
g50
sVAlias
p844
g52
sVPYQuanPin
p845
Vzhongguoliantong
p846
sVSignature
p847
V\u4e2d\u56fd\u8054\u901a\u5fae\u4fe1\u8425\u4e1a\u5385\uff0c\u4fbf\u6377\u968f\u8eab\uff0c\u67e5\u8be2\u529e\u7406\u4e00\u952e\u641e\u5b9a\uff0c\u8fd8\u6709\u5ba2\u670dMM\u8d34\u5fc3\u89e3\u5fe7\uff0c\u66f4\u591a\u8d44\u8baf\u63a8\u8350\u4e0e\u60a8\u5206\u4eab\u3002\u656c\u8bf7\u5149\u4e34\uff0c\u671f\u5f85\u60ca\u559c\uff01
p848
sVRemarkPYInitial
p849
g52
sVContactFlag
p850
I3
sVUin
p851
I0
sVNickName
p852
V\u4e2d\u56fd\u8054\u901a
p853
sVAppAccountFlag
p854
I0
sVVerifyFlag
p855
I24
sVRemarkPYQuanPin
p856
g52
sVHeadImgUrl
p857
V/cgi-bin/mmwebwx-bin/webwxgeticon?seq=603850307&username=@026cb3fa57ff318e73c1ac25fe376ddc&skey=@crypt_bda10ae4_2dd718035087ebcc241b70132a145726
p858
sVKeyWord
p859
Vgh_
p860
sVProvince
p861
V\u5317\u4eac
p862
sVPYInitial
p863
VZGLT
p864
sVRemarkName
p865
g52
sVIsOwner
p866
I0
sVSex
p867
I0
sVStarFriend
p868
I0
sVHideInputBarFlag
p869
I0
sVChatRoomId
p870
I0
sVEncryChatRoomId
p871
g52
sVAttrStatus
p872
I0
sVStatues
p873
I0
stp874
Rp875
I1
batp876
Rp877
I1
bssS'loginInfo'
p878
(dp879
S'SyncKey'
p880
(dp881
VCount
p882
I4
sVList
p883
(lp884
(dp885
VVal
p886
I606871995
sVKey
p887
I1
sa(dp888
VVal
p889
I606872162
sVKey
p890
I2
sa(dp891
VVal
p892
I606872127
sVKey
p893
I3
sa(dp894
VVal
p895
I1493892769
sVKey
p896
I1000
sassS'syncUrl'
p897
S'https://webpush.wx2.qq.com/cgi-bin/mmwebwx-bin'
p898
sS'skey'
p899
V@crypt_bda10ae4_2dd718035087ebcc241b70132a145726
p900
sS'wxuin'
p901
V3413407412
p902
sS'synckey'
p903
S'1_606871995|2_606872162|3_606872127|1000_1493892769'
p904
sS'url'
p905
Vhttps://wx2.qq.com/cgi-bin/mmwebwx-bin
p906
sS'pass_ticket'
p907
VD7fjuB3mKz%2BBdRnu6EFrIKhH0jfhgsW1LqiDJY3tZat2kpI7hk8j02TBVOpfpPGy
p908
sS'wxsid'
p909
Vpgt7SNiATc1liH8X
p910
sS'BaseRequest'
p911
(dp912
g54
g902
sS'Skey'
p913
g900
sS'DeviceID'
p914
g908
sS'Sid'
p915
g910
ssS'deviceid'
p916
S'e340624335144763'
p917
sS'fileUrl'
p918
S'https://file.wx2.qq.com/cgi-bin/mmwebwx-bin'
p919
sS'InviteStartCount'
p920
I40
sS'User'
p921
g34
(g38
g39
(dp922
g41
g31
sg42
g43
sg44
g43
sg45
I0
sg47
g50
sg51
g52
sg53
g52
sg77
I0
sg55
I0
sg56
I0
sg57
g43
sg58
g43
sg59
g52
sg60
g52
sg61
I0
sg62
I0
sg63
I1
sg64
g43
sg65
I0
sg68
I0
sg66
I0
sg67
I0
sg46
I0
sg69
g43
sg70
g52
sg71
I0
sg72
g73
sg74
g52
sg75
g76
sg54
I3413407412
sg78
I0
sg79
I0
stp923
Rp924
I1
bss.