(dp0
S'cookies'
p1
(dp2
S'wxloadtime'
p3
S'1493892769'
p4
sS'webwx_data_ticket'
p5
S'gSe6WPLmpH0bxRm2f1r3SdUn'
p6
sS'wxuin'
p7
S'3413407412'
p8
sS'login_frequency'
p9
S'2'
p10
sS'MM_WX_NOTIFY_STATE'
p11
S'1'
p12
sS'MM_WX_SOUND_STATE'
p13
g12
sS'webwx_auth_ticket'
p14
S'CIsBEOztorEMGoABsdC+Jr39At68EzZeGL6Jmsrb8crHWhK3OA/2sycGh0lQlfhdd9hvlixaxKzuO7yY4JagZBgUvEaEZ/BBGSoSQLEc4augePCpYSWNBAWlZt7U9Y6erR/l0+C/U3Wqh7QqTFz3Ir5LTKIEi2jdIsBV6xFN85k+IB4fikaBbsCEJ/E='
p15
sS'last_wxuin'
p16
S'3413407412'
p17
sS'webwxuvid'
p18
S'41520c81ebbb9c0f70a7094c1f9c9176e4091e27c8c21ae23abea9e8eb5e46f281ca79188377c1f2172acda3b637dd64'
p19
sS'wxpluginkey'
p20
S'1493793638'
p21
sS'wxsid'
p22
S'EmIFFJD5iBC7Czhz'
p23
sS'mm_lang'
p24
S'zh_CN'
p25
ssS'version'
p26
S'1.3.5'
p27
sS'storage'
p28
(dp29
S'userName'
p30
V@99e83e850908164012a07dd4fc44acd44b10474a62119cc50b0e1935fd1514ee
p31
sS'lastInputUserName'
p32
NsS'memberList'
p33
ccopy_reg
_reconstructor
p34
(cchatcore.storage.templates
ContactList
p35
c__builtin__
list
p36
(lp37
g34
(cchatcore.storage.templates
User
p38
c__builtin__
dict
p39
(dp40
S'UserName'
p41
g31
sS'City'
p42
S''
p43
sS'DisplayName'
p44
g43
sS'UniFriend'
p45
I0
sS'OwnerUin'
p46
I0
sS'MemberList'
p47
g34
(g35
g36
(lp48
tp49
Rp50
I1
bsS'PYQuanPin'
p51
V
p52
sS'RemarkPYInitial'
p53
g52
sS'Uin'
p54
I3413407412
sS'AppAccountFlag'
p55
I0
sS'VerifyFlag'
p56
I0
sS'Province'
p57
g43
sS'KeyWord'
p58
g43
sS'RemarkName'
p59
g52
sS'PYInitial'
p60
g52
sS'ChatRoomId'
p61
I0
sS'HideInputBarFlag'
p62
I0
sVHeadImgFlag
p63
I1
sS'EncryChatRoomId'
p64
g43
sS'AttrStatus'
p65
I0
sS'SnsFlag'
p66
I0
sS'MemberCount'
p67
I0
sVWebWxPluginSwitch
p68
I0
sS'Alias'
p69
g43
sS'Signature'
p70
g52
sS'ContactFlag'
p71
I0
sS'NickName'
p72
VAran
p73
sS'RemarkPYQuanPin'
p74
g52
sS'HeadImgUrl'
p75
V/cgi-bin/mmwebwx-bin/webwxgeticon?seq=275293846&username=@99e83e850908164012a07dd4fc44acd44b10474a62119cc50b0e1935fd1514ee&skey=@crypt_bda10ae4_84e5417b8b6cae756e9cea834dbd387f
p76
sS'Sex'
p77
I0
sS'StarFriend'
p78
I0
sS'Statues'
p79
I0
stp80
Rp81
I1
bag34
(g38
g39
(dp82
VUserName
p83
V@c607f0737d6d1d3b1a026b0dd792c9cca199ebb305b6db10a706a9bacac64633
p84
sVCity
p85
V\u4e1c\u57ce
p86
sVSnsFlag
p87
I49
sVDisplayName
p88
g52
sVUniFriend
p89
I0
sVMemberCount
p90
I0
sVOwnerUin
p91
I0
sVMemberList
p92
g50
sVAlias
p93
g52
sVPYQuanPin
p94
VYat3s
p95
sVSignature
p96
V\u4e00\u53ea\u7231\u73a9\u7684\u7a0b\u5e8f\u6c6a<span class="emoji emoji1f436"></span>
p97
sVRemarkPYInitial
p98
g52
sVContactFlag
p99
I3
sVUin
p100
I0
sVNickName
p101
VYat3s
p102
sVAppAccountFlag
p103
I0
sVVerifyFlag
p104
I0
sVRemarkPYQuanPin
p105
g52
sVHeadImgUrl
p106
V/cgi-bin/mmwebwx-bin/webwxgeticon?seq=603850332&username=@c607f0737d6d1d3b1a026b0dd792c9cca199ebb305b6db10a706a9bacac64633&skey=@crypt_bda10ae4_84e5417b8b6cae756e9cea834dbd387f
p107
sVKeyWord
p108
g52
sVProvince
p109
V\u5317\u4eac
p110
sVPYInitial
p111
VYAT3S
p112
sVRemarkName
p113
g52
sVIsOwner
p114
I0
sVSex
p115
I1
sVStarFriend
p116
I0
sVHideInputBarFlag
p117
I0
sVChatRoomId
p118
I0
sVEncryChatRoomId
p119
g52
sVAttrStatus
p120
I37851239
sVStatues
p121
I0
stp122
Rp123
I1
bag34
(g38
g39
(dp124
VUserName
p125
V@ca5ec6aade184bfeba5bcbb7da76b267c6d211634387a0f27acaa2654a4cf95f
p126
sVCity
p127
V\u8d63\u5dde
p128
sVSnsFlag
p129
I49
sVDisplayName
p130
g52
sVUniFriend
p131
I0
sVMemberCount
p132
I0
sVOwnerUin
p133
I0
sVMemberList
p134
g50
sVAlias
p135
g52
sVPYQuanPin
p136
Vxiaoliao15807504515
p137
sVSignature
p138
V\u4e0b\u8f88\u5b50\u6295\u80ce\u505a\u4e2a\u7537\u4eba\uff0c\u5a36\u4e2a\u50cf\u6211\u8fd9\u6837\u7684\u5973\u4eba\U0001f64815807504515
p139
sVRemarkPYInitial
p140
VELAINE
p141
sVContactFlag
p142
I3
sVUin
p143
I0
sVNickName
p144
V\u5c0f\u5ed6 15807504515
p145
sVAppAccountFlag
p146
I0
sVVerifyFlag
p147
I0
sVRemarkPYQuanPin
p148
VElaine
p149
sVHeadImgUrl
p150
V/cgi-bin/mmwebwx-bin/webwxgeticon?seq=603850127&username=@ca5ec6aade184bfeba5bcbb7da76b267c6d211634387a0f27acaa2654a4cf95f&skey=@crypt_bda10ae4_84e5417b8b6cae756e9cea834dbd387f
p151
sVKeyWord
p152
g52
sVProvince
p153
V\u6c5f\u897f
p154
sVPYInitial
p155
VXL15807504515
p156
sVRemarkName
p157
VElaine
p158
sVIsOwner
p159
I0
sVSex
p160
I2
sVStarFriend
p161
I0
sVHideInputBarFlag
p162
I0
sVChatRoomId
p163
I0
sVEncryChatRoomId
p164
g52
sVAttrStatus
p165
I69669
sVStatues
p166
I0
stp167
Rp168
I1
bag34
(g38
g39
(dp169
VUserName
p170
V@7b1f93f82374b60dd9f3f8e0aaa91baa
p171
sVCity
p172
V\u8475\u9752\u533a
p173
sVSnsFlag
p174
I49
sVDisplayName
p175
g52
sVUniFriend
p176
I0
sVMemberCount
p177
I0
sVOwnerUin
p178
I0
sVMemberList
p179
g50
sVAlias
p180
g52
sVPYQuanPin
p181
Vspanclassemojiemoji1f335spanyezhier
p182
sVSignature
p183
V\u65f6\u5149\u6f2b\u957f\uff0c\u6709\u6211\u522b\u614c\u3002<span class="emoji emoji1f618"></span>
p184
sVRemarkPYInitial
p185
g52
sVContactFlag
p186
I3
sVUin
p187
I0
sVNickName
p188
V\U0001f335\u6930\u6c41\u513f
p189
sVAppAccountFlag
p190
I0
sVVerifyFlag
p191
I0
sVRemarkPYQuanPin
p192
g52
sVHeadImgUrl
p193
V/cgi-bin/mmwebwx-bin/webwxgeticon?seq=603850968&username=@7b1f93f82374b60dd9f3f8e0aaa91baa&skey=@crypt_bda10ae4_84e5417b8b6cae756e9cea834dbd387f
p194
sVKeyWord
p195
Vyev
p196
sVProvince
p197
V\u9999\u6e2f
p198
sVPYInitial
p199
VSPANCLASSEMOJIEMOJI1F335SPANYZE
p200
sVRemarkName
p201
g52
sVIsOwner
p202
I0
sVSex
p203
I2
sVStarFriend
p204
I0
sVHideInputBarFlag
p205
I0
sVChatRoomId
p206
I0
sVEncryChatRoomId
p207
g52
sVAttrStatus
p208
I67623
sVStatues
p209
I0
stp210
Rp211
I1
bag34
(g38
g39
(dp212
VUserName
p213
V@47ce5822dc8b3c320bc4988b043e091b4eb7010a3a36c6855aa1602fa684a1f5
p214
sVCity
p215
g52
sVSnsFlag
p216
I17
sVDisplayName
p217
g52
sVUniFriend
p218
I0
sVMemberCount
p219
I0
sVOwnerUin
p220
I0
sVMemberList
p221
g50
sVAlias
p222
g52
sVPYQuanPin
p223
Vxiaodeqiu
p224
sVSignature
p225
V\u5b66\u800c\u4e0d\u601d\u5219\u7f54\uff0c\u54c8\u54c8
p226
sVRemarkPYInitial
p227
g52
sVContactFlag
p228
I3
sVUin
p229
I0
sVNickName
p230
V\u5c0f\u5730\u7403
p231
sVAppAccountFlag
p232
I0
sVVerifyFlag
p233
I0
sVRemarkPYQuanPin
p234
g52
sVHeadImgUrl
p235
V/cgi-bin/mmwebwx-bin/webwxgeticon?seq=603851078&username=@47ce5822dc8b3c320bc4988b043e091b4eb7010a3a36c6855aa1602fa684a1f5&skey=@crypt_bda10ae4_84e5417b8b6cae756e9cea834dbd387f
p236
sVKeyWord
p237
g52
sVProvince
p238
VFrankfurt
p239
sVPYInitial
p240
VXDQ
p241
sVRemarkName
p242
g52
sVIsOwner
p243
I0
sVSex
p244
I1
sVStarFriend
p245
I0
sVHideInputBarFlag
p246
I0
sVChatRoomId
p247
I0
sVEncryChatRoomId
p248
g52
sVAttrStatus
p249
I33789989
sVStatues
p250
I0
stp251
Rp252
I1
bag34
(g38
g39
(dp253
VUserName
p254
V@fd38708d5f4b574d2614b71b263bbc9daa32aa84f4d0f291c771d6a7b069e4ee
p255
sVCity
p256
g52
sVSnsFlag
p257
I49
sVDisplayName
p258
g52
sVUniFriend
p259
I0
sVMemberCount
p260
I0
sVOwnerUin
p261
I0
sVMemberList
p262
g50
sVAlias
p263
g52
sVPYQuanPin
p264
Vechoxiaomeng
p265
sVSignature
p266
V\u65e2\u7136\u7434\u745f\u8d77
p267
sVRemarkPYInitial
p268
g52
sVContactFlag
p269
I3
sVUin
p270
I0
sVNickName
p271
Vecho\u5c0f\u840c
p272
sVAppAccountFlag
p273
I0
sVVerifyFlag
p274
I0
sVRemarkPYQuanPin
p275
g52
sVHeadImgUrl
p276
V/cgi-bin/mmwebwx-bin/webwxgeticon?seq=603851910&username=@fd38708d5f4b574d2614b71b263bbc9daa32aa84f4d0f291c771d6a7b069e4ee&skey=@crypt_bda10ae4_84e5417b8b6cae756e9cea834dbd387f
p277
sVKeyWord
p278
g52
sVProvince
p279
V\u5317\u4eac
p280
sVPYInitial
p281
VECHOXM
p282
sVRemarkName
p283
g52
sVIsOwner
p284
I0
sVSex
p285
I2
sVStarFriend
p286
I0
sVHideInputBarFlag
p287
I0
sVChatRoomId
p288
I0
sVEncryChatRoomId
p289
g52
sVAttrStatus
p290
I67224677
sVStatues
p291
I0
stp292
Rp293
I1
bag34
(g38
g39
(dp294
VUserName
p295
V@916ad7d6afa9948a5cec52ef578adfe40858578c45098f5838298d83cee7b9ed
p296
sVCity
p297
g52
sVSnsFlag
p298
I17
sVDisplayName
p299
g52
sVUniFriend
p300
I0
sVMemberCount
p301
I0
sVOwnerUin
p302
I0
sVMemberList
p303
g50
sVAlias
p304
g52
sVPYQuanPin
p305
Vmeiguishilichunfeng
p306
sVSignature
p307
V\u800c\u4eca\u6811\u58ee\u5fd7        \u4ee5\u5f85\u626c\u56fd\u5a01
p308
sVRemarkPYInitial
p309
g52
sVContactFlag
p310
I3
sVUin
p311
I0
sVNickName
p312
V[\u73ab\u7470]\u5341\u91cc\u6625\u98ce
p313
sVAppAccountFlag
p314
I0
sVVerifyFlag
p315
I0
sVRemarkPYQuanPin
p316
g52
sVHeadImgUrl
p317
V/cgi-bin/mmwebwx-bin/webwxgeticon?seq=603852839&username=@916ad7d6afa9948a5cec52ef578adfe40858578c45098f5838298d83cee7b9ed&skey=@crypt_bda10ae4_84e5417b8b6cae756e9cea834dbd387f
p318
sVKeyWord
p319
g52
sVProvince
p320
VParis
p321
sVPYInitial
p322
VMGSLCF
p323
sVRemarkName
p324
g52
sVIsOwner
p325
I0
sVSex
p326
I1
sVStarFriend
p327
I0
sVHideInputBarFlag
p328
I0
sVChatRoomId
p329
I0
sVEncryChatRoomId
p330
g52
sVAttrStatus
p331
I102439
sVStatues
p332
I0
stp333
Rp334
I1
bag34
(g38
g39
(dp335
VUserName
p336
V@de7d66a1f435f02920ba883436876dc3
p337
sVCity
p338
V\u671d\u9633
p339
sVSnsFlag
p340
I49
sVDisplayName
p341
g52
sVUniFriend
p342
I0
sVMemberCount
p343
I0
sVOwnerUin
p344
I0
sVMemberList
p345
g50
sVAlias
p346
g52
sVPYQuanPin
p347
Vspanclassemojiemoji1f343span
p348
sVSignature
p349
V<span class="emoji emoji2708"></span>\ufe0f
p350
sVRemarkPYInitial
p351
g52
sVContactFlag
p352
I3
sVUin
p353
I0
sVNickName
p354
V\U0001f343
p355
sVAppAccountFlag
p356
I0
sVVerifyFlag
p357
I0
sVRemarkPYQuanPin
p358
g52
sVHeadImgUrl
p359
V/cgi-bin/mmwebwx-bin/webwxgeticon?seq=606870188&username=@de7d66a1f435f02920ba883436876dc3&skey=@crypt_bda10ae4_84e5417b8b6cae756e9cea834dbd387f
p360
sVKeyWord
p361
VYE1
p362
sVProvince
p363
V\u5317\u4eac
p364
sVPYInitial
p365
VSPANCLASSEMOJIEMOJI1F343SPAN
p366
sVRemarkName
p367
g52
sVIsOwner
p368
I0
sVSex
p369
I2
sVStarFriend
p370
I0
sVHideInputBarFlag
p371
I0
sVChatRoomId
p372
I0
sVEncryChatRoomId
p373
g52
sVAttrStatus
p374
I229863
sVStatues
p375
I0
stp376
Rp377
I1
bag34
(g38
g39
(dp378
VUserName
p379
V@c1c7ff93d55f95b98b88a98712f963925ef474f6555d944d0b00b1484d0778c3
p380
sVCity
p381
V\u671d\u9633
p382
sVSnsFlag
p383
I17
sVDisplayName
p384
g52
sVUniFriend
p385
I0
sVMemberCount
p386
I0
sVOwnerUin
p387
I0
sVMemberList
p388
g50
sVAlias
p389
g52
sVPYQuanPin
p390
VKerry
p391
sVSignature
p392
V\u4ee5\u68a6\u4e3a\u9a6c\uff0c\u4e0d\u8d1f\u97f6\u534e
p393
sVRemarkPYInitial
p394
g52
sVContactFlag
p395
I3
sVUin
p396
I0
sVNickName
p397
VKerry
p398
sVAppAccountFlag
p399
I0
sVVerifyFlag
p400
I0
sVRemarkPYQuanPin
p401
g52
sVHeadImgUrl
p402
V/cgi-bin/mmwebwx-bin/webwxgeticon?seq=603850763&username=@c1c7ff93d55f95b98b88a98712f963925ef474f6555d944d0b00b1484d0778c3&skey=@crypt_bda10ae4_84e5417b8b6cae756e9cea834dbd387f
p403
sVKeyWord
p404
g52
sVProvince
p405
V\u5317\u4eac
p406
sVPYInitial
p407
VKERRY
p408
sVRemarkName
p409
g52
sVIsOwner
p410
I0
sVSex
p411
I2
sVStarFriend
p412
I0
sVHideInputBarFlag
p413
I0
sVChatRoomId
p414
I0
sVEncryChatRoomId
p415
g52
sVAttrStatus
p416
I33674359
sVStatues
p417
I0
stp418
Rp419
I1
bag34
(g38
g39
(dp420
VUserName
p421
V@a98ffb44f72877bceb9c79930089c2c5ee8c7d79a3edf091cbbb1a651a186243
p422
sVCity
p423
g52
sVSnsFlag
p424
I17
sVDisplayName
p425
g52
sVUniFriend
p426
I0
sVMemberCount
p427
I0
sVOwnerUin
p428
I0
sVMemberList
p429
g50
sVAlias
p430
g52
sVPYQuanPin
p431
Vspanclassemojiemoji1f33espancaoyispanclassemojiemoji1f33espan
p432
sVSignature
p433
V\u6709\u82b1\u6709\u6708\u6709\u697c\u53f0 \u4e0d\u98ce\u6d41\u5904\u4e5f\u98ce\u6d41
p434
sVRemarkPYInitial
p435
g52
sVContactFlag
p436
I3
sVUin
p437
I0
sVNickName
p438
V\U0001f33e\u8349\u4e59\U0001f33e
p439
sVAppAccountFlag
p440
I0
sVVerifyFlag
p441
I0
sVRemarkPYQuanPin
p442
g52
sVHeadImgUrl
p443
V/cgi-bin/mmwebwx-bin/webwxgeticon?seq=606870864&username=@a98ffb44f72877bceb9c79930089c2c5ee8c7d79a3edf091cbbb1a651a186243&skey=@crypt_bda10ae4_84e5417b8b6cae756e9cea834dbd387f
p444
sVKeyWord
p445
g52
sVProvince
p446
g52
sVPYInitial
p447
VSPANCLASSEMOJIEMOJI1F33ESPANCYSPANCLASSEMOJIEMOJI1F33ESPAN
p448
sVRemarkName
p449
g52
sVIsOwner
p450
I0
sVSex
p451
I2
sVStarFriend
p452
I0
sVHideInputBarFlag
p453
I0
sVChatRoomId
p454
I0
sVEncryChatRoomId
p455
g52
sVAttrStatus
p456
I33785893
sVStatues
p457
I0
stp458
Rp459
I1
batp460
Rp461
I1
bsS'chatroomList'
p462
g34
(g35
g36
(lp463
g34
(cchatcore.storage.templates
Chatroom
p464
g39
(dp465
VUserName
p466
V@@8376e6864ed5178cd60ed62a87155d74a38f76b0a6715f61e4656bd275fd31e9
p467
sVCity
p468
g52
sVDisplayName
p469
g52
sVUniFriend
p470
I0
sS'Self'
p471
g34
(g38
g39
(dp472
g41
g31
sg42
g43
sg44
g43
sg45
I0
sg46
I0
sg47
g34
(g35
g36
(lp473
tp474
Rp475
I1
bsg51
g52
sg53
g52
sg54
I3413407412
sg55
I0
sg56
I0
sg57
g43
sg58
g43
sg59
g52
sg60
g52
sg61
I0
sg62
I0
sg63
I1
sg64
g43
sg65
I0
sg66
I0
sg67
I0
sg68
I0
sg69
g43
sg70
g52
sg71
I0
sg72
g73
sg74
g52
sg75
g76
sg77
I0
sg78
I0
sg79
I0
stp476
Rp477
I1
bsVMemberList
p478
g34
(g35
g36
(lp479
tp480
Rp481
I1
bsVPYQuanPin
p482
g52
sVRemarkPYInitial
p483
g52
sVSex
p484
I0
sVAppAccountFlag
p485
I0
sVVerifyFlag
p486
I0
sVProvince
p487
g52
sVKeyWord
p488
g52
sVRemarkName
p489
g52
sVPYInitial
p490
g52
sVIsOwner
p491
I0
sVChatRoomId
p492
I0
sVHideInputBarFlag
p493
I0
sVEncryChatRoomId
p494
g52
sVAttrStatus
p495
I0
sVSnsFlag
p496
I0
sVMemberCount
p497
I8
sVOwnerUin
p498
I0
sVAlias
p499
g52
sS'IsAdmin'
p500
NsVSignature
p501
g52
sVContactFlag
p502
I2
sVNickName
p503
V\u7ea2\u5305\u96e8
p504
sVRemarkPYQuanPin
p505
g52
sVHeadImgUrl
p506
V/cgi-bin/mmwebwx-bin/webwxgetheadimg?seq=603850892&username=@@8376e6864ed5178cd60ed62a87155d74a38f76b0a6715f61e4656bd275fd31e9&skey=@crypt_bda10ae4_84e5417b8b6cae756e9cea834dbd387f
p507
sVUin
p508
I0
sVStarFriend
p509
I0
sVStatues
p510
I1
stp511
Rp512
I1
bag34
(g464
g39
(dp513
VUserName
p514
V@@0195e9c19ee15ff05864ee00bbb70517efea2d55e3232110fb3d2ee612ee03ac
p515
sVCity
p516
g52
sVDisplayName
p517
g52
sVUniFriend
p518
I0
sg471
g34
(g38
g39
(dp519
g41
g31
sg42
g43
sg44
g43
sg45
I0
sg46
I0
sg47
g34
(g35
g36
(lp520
tp521
Rp522
I1
bsg51
g52
sg53
g52
sg54
I3413407412
sg55
I0
sg56
I0
sg57
g43
sg58
g43
sg59
g52
sg60
g52
sg61
I0
sg62
I0
sg63
I1
sg64
g43
sg65
I0
sg66
I0
sg67
I0
sg68
I0
sg69
g43
sg70
g52
sg71
I0
sg72
g73
sg74
g52
sg75
g76
sg77
I0
sg78
I0
sg79
I0
stp523
Rp524
I1
bsVMemberList
p525
g34
(g35
g36
(lp526
tp527
Rp528
I1
bsVPYQuanPin
p529
g52
sVRemarkPYInitial
p530
g52
sVSex
p531
I0
sVAppAccountFlag
p532
I0
sVVerifyFlag
p533
I0
sVProvince
p534
g52
sVKeyWord
p535
g52
sVRemarkName
p536
g52
sVPYInitial
p537
g52
sVIsOwner
p538
I0
sVChatRoomId
p539
I0
sVHideInputBarFlag
p540
I0
sVEncryChatRoomId
p541
g52
sVAttrStatus
p542
I0
sVSnsFlag
p543
I0
sVMemberCount
p544
I8
sVOwnerUin
p545
I0
sVAlias
p546
g52
sg500
NsVSignature
p547
g52
sVContactFlag
p548
I2
sVNickName
p549
Vbdp\u79fb\u52a8\u7ec4
p550
sVRemarkPYQuanPin
p551
g52
sVHeadImgUrl
p552
V/cgi-bin/mmwebwx-bin/webwxgetheadimg?seq=606871315&username=@@0195e9c19ee15ff05864ee00bbb70517efea2d55e3232110fb3d2ee612ee03ac&skey=@crypt_bda10ae4_84e5417b8b6cae756e9cea834dbd387f
p553
sVUin
p554
I0
sVStarFriend
p555
I0
sVStatues
p556
I1
stp557
Rp558
I1
bag34
(g464
g39
(dp559
VUserName
p560
V@@7f0675539b0d77ec916df92f10a5df2b98e41f4141ccf4d204eece5b6dc41769
p561
sVCity
p562
g52
sVDisplayName
p563
g52
sVUniFriend
p564
I0
sg471
g34
(g38
g39
(dp565
g41
g31
sg42
g43
sg44
g43
sg45
I0
sg46
I0
sg47
g34
(g35
g36
(lp566
tp567
Rp568
I1
bsg51
g52
sg53
g52
sg54
I3413407412
sg55
I0
sg56
I0
sg57
g43
sg58
g43
sg59
g52
sg60
g52
sg61
I0
sg62
I0
sg63
I1
sg64
g43
sg65
I0
sg66
I0
sg67
I0
sg68
I0
sg69
g43
sg70
g52
sg71
I0
sg72
g73
sg74
g52
sg75
g76
sg77
I0
sg78
I0
sg79
I0
stp569
Rp570
I1
bsVMemberList
p571
g34
(g35
g36
(lp572
tp573
Rp574
I1
bsVPYQuanPin
p575
g52
sVRemarkPYInitial
p576
g52
sVSex
p577
I0
sVAppAccountFlag
p578
I0
sVVerifyFlag
p579
I0
sVProvince
p580
g52
sVKeyWord
p581
g52
sVRemarkName
p582
g52
sVPYInitial
p583
g52
sVIsOwner
p584
I0
sVChatRoomId
p585
I0
sVHideInputBarFlag
p586
I0
sVEncryChatRoomId
p587
g52
sVAttrStatus
p588
I0
sVSnsFlag
p589
I0
sVMemberCount
p590
I10
sVOwnerUin
p591
I0
sVAlias
p592
g52
sg500
NsVSignature
p593
g52
sVContactFlag
p594
I0
sVNickName
p595
V\u5bbe\u679c\u8001\u55e8\uff0c\u5bbe\u679c\u4efd\u4f4e
p596
sVRemarkPYQuanPin
p597
g52
sVHeadImgUrl
p598
V/cgi-bin/mmwebwx-bin/webwxgetheadimg?seq=0&username=@@7f0675539b0d77ec916df92f10a5df2b98e41f4141ccf4d204eece5b6dc41769&skey=@crypt_bda10ae4_84e5417b8b6cae756e9cea834dbd387f
p599
sVUin
p600
I0
sVStarFriend
p601
I0
sVStatues
p602
I0
stp603
Rp604
I1
bag34
(g464
g39
(dp605
VUserName
p606
V@@196ac37d44b8f856941c4b986c5d1ea66dbc2f3dd15da306e87ce0af71d485a1
p607
sVCity
p608
g52
sVDisplayName
p609
g52
sVUniFriend
p610
I0
sg471
g34
(g38
g39
(dp611
g41
g31
sg42
g43
sg44
g43
sg45
I0
sg46
I0
sg47
g34
(g35
g36
(lp612
tp613
Rp614
I1
bsg51
g52
sg53
g52
sg54
I3413407412
sg55
I0
sg56
I0
sg57
g43
sg58
g43
sg59
g52
sg60
g52
sg61
I0
sg62
I0
sg63
I1
sg64
g43
sg65
I0
sg66
I0
sg67
I0
sg68
I0
sg69
g43
sg70
g52
sg71
I0
sg72
g73
sg74
g52
sg75
g76
sg77
I0
sg78
I0
sg79
I0
stp615
Rp616
I1
bsVMemberList
p617
g34
(g35
g36
(lp618
tp619
Rp620
I1
bsVPYQuanPin
p621
g52
sVRemarkPYInitial
p622
g52
sVSex
p623
I0
sVAppAccountFlag
p624
I0
sVVerifyFlag
p625
I0
sVProvince
p626
g52
sVKeyWord
p627
g52
sVRemarkName
p628
g52
sVPYInitial
p629
g52
sVIsOwner
p630
I0
sVChatRoomId
p631
I0
sVHideInputBarFlag
p632
I0
sVEncryChatRoomId
p633
g52
sVAttrStatus
p634
I0
sVSnsFlag
p635
I0
sVMemberCount
p636
I12
sVOwnerUin
p637
I0
sVAlias
p638
g52
sg500
NsVSignature
p639
g52
sVContactFlag
p640
I0
sVNickName
p641
V\u5468\u516d\u5317\u4eacAndroidMeetup
p642
sVRemarkPYQuanPin
p643
g52
sVHeadImgUrl
p644
V/cgi-bin/mmwebwx-bin/webwxgetheadimg?seq=0&username=@@196ac37d44b8f856941c4b986c5d1ea66dbc2f3dd15da306e87ce0af71d485a1&skey=@crypt_bda10ae4_84e5417b8b6cae756e9cea834dbd387f
p645
sVUin
p646
I0
sVStarFriend
p647
I0
sVStatues
p648
I1
stp649
Rp650
I1
bag34
(g464
g39
(dp651
VUserName
p652
V@@eb36f1d0667dd01abffaa0efa9b5e3a1ff6198892286d9e91b526f25fffb9f56
p653
sVCity
p654
g52
sVDisplayName
p655
g52
sVUniFriend
p656
I0
sg471
g34
(g38
g39
(dp657
g41
g31
sg42
g43
sg44
g43
sg45
I0
sg46
I0
sg47
g34
(g35
g36
(lp658
tp659
Rp660
I1
bsg51
g52
sg53
g52
sg54
I3413407412
sg55
I0
sg56
I0
sg57
g43
sg58
g43
sg59
g52
sg60
g52
sg61
I0
sg62
I0
sg63
I1
sg64
g43
sg65
I0
sg66
I0
sg67
I0
sg68
I0
sg69
g43
sg70
g52
sg71
I0
sg72
g73
sg74
g52
sg75
g76
sg77
I0
sg78
I0
sg79
I0
stp661
Rp662
I1
bsVMemberList
p663
g34
(g35
g36
(lp664
tp665
Rp666
I1
bsVPYQuanPin
p667
g52
sVRemarkPYInitial
p668
g52
sVSex
p669
I0
sVAppAccountFlag
p670
I0
sVVerifyFlag
p671
I0
sVProvince
p672
g52
sVKeyWord
p673
g52
sVRemarkName
p674
g52
sVPYInitial
p675
g52
sVIsOwner
p676
I0
sVChatRoomId
p677
I0
sVHideInputBarFlag
p678
I0
sVEncryChatRoomId
p679
g52
sVAttrStatus
p680
I0
sVSnsFlag
p681
I0
sVMemberCount
p682
I3
sVOwnerUin
p683
I0
sVAlias
p684
g52
sg500
NsVSignature
p685
g52
sVContactFlag
p686
I0
sVNickName
p687
V\u53f6\u840c\u7136
p688
sVRemarkPYQuanPin
p689
g52
sVHeadImgUrl
p690
V/cgi-bin/mmwebwx-bin/webwxgetheadimg?seq=0&username=@@eb36f1d0667dd01abffaa0efa9b5e3a1ff6198892286d9e91b526f25fffb9f56&skey=@crypt_bda10ae4_84e5417b8b6cae756e9cea834dbd387f
p691
sVUin
p692
I0
sVStarFriend
p693
I0
sVStatues
p694
I1
stp695
Rp696
I1
bag34
(g464
g39
(dp697
VUserName
p698
V@@0a0cda85b7a45a71d1e51223ee13bb59c663b09711c4a4a6f8270224eed59477
p699
sVCity
p700
g52
sVDisplayName
p701
g52
sVUniFriend
p702
I0
sg471
g34
(g38
g39
(dp703
g41
g31
sg42
g43
sg44
g43
sg45
I0
sg46
I0
sg47
g34
(g35
g36
(lp704
tp705
Rp706
I1
bsg51
g52
sg53
g52
sg54
I3413407412
sg55
I0
sg56
I0
sg57
g43
sg58
g43
sg59
g52
sg60
g52
sg61
I0
sg62
I0
sg63
I1
sg64
g43
sg65
I0
sg66
I0
sg67
I0
sg68
I0
sg69
g43
sg70
g52
sg71
I0
sg72
g73
sg74
g52
sg75
g76
sg77
I0
sg78
I0
sg79
I0
stp707
Rp708
I1
bsVMemberList
p709
g34
(g35
g36
(lp710
tp711
Rp712
I1
bsVPYQuanPin
p713
g52
sVRemarkPYInitial
p714
g52
sVSex
p715
I0
sVAppAccountFlag
p716
I0
sVVerifyFlag
p717
I0
sVProvince
p718
g52
sVKeyWord
p719
g52
sVRemarkName
p720
g52
sVPYInitial
p721
g52
sVIsOwner
p722
I0
sVChatRoomId
p723
I0
sVHideInputBarFlag
p724
I0
sVEncryChatRoomId
p725
g52
sVAttrStatus
p726
I0
sVSnsFlag
p727
I0
sVMemberCount
p728
I3
sVOwnerUin
p729
I0
sVAlias
p730
g52
sg500
NsVSignature
p731
g52
sVContactFlag
p732
I0
sVNickName
p733
V\u54c8\u54c8\u54c8
p734
sVRemarkPYQuanPin
p735
g52
sVHeadImgUrl
p736
V/cgi-bin/mmwebwx-bin/webwxgetheadimg?seq=0&username=@@0a0cda85b7a45a71d1e51223ee13bb59c663b09711c4a4a6f8270224eed59477&skey=@crypt_bda10ae4_84e5417b8b6cae756e9cea834dbd387f
p737
sVUin
p738
I0
sVStarFriend
p739
I0
sVStatues
p740
I1
stp741
Rp742
I1
batp743
Rp744
I1
bsS'nickName'
p745
g73
sS'mpList'
p746
g34
(g35
g36
(lp747
g34
(cchatcore.storage.templates
MassivePlatform
p748
g39
(dp749
VUserName
p750
V@7787175e5627440db01604c19284ab62
p751
sVCity
p752
V\u5e7f\u5dde
p753
sVSnsFlag
p754
I0
sVDisplayName
p755
g52
sVUniFriend
p756
I0
sVMemberCount
p757
I0
sVOwnerUin
p758
I0
sVMemberList
p759
g50
sVAlias
p760
g52
sVPYQuanPin
p761
Vgongzhongpingtaianquanzhushou
p762
sVSignature
p763
V\u63d0\u4f9b\u5fae\u4fe1\u516c\u4f17\u53f7\u767b\u5f55\u548c\u7fa4\u53d1\u7b49\u5b89\u5168\u64cd\u4f5c\uff0c\u5728\u624b\u673a\u4e0a\u67e5\u6536\u6d88\u606f\u3001\u8bc4\u8bba\u3001\u8d5e\u8d4f\uff0c\u65b0\u5efa\u7fa4\u53d1\u548c\u67e5\u770b\u7fa4\u53d1\u5386\u53f2\u3002
p764
sVRemarkPYInitial
p765
g52
sVContactFlag
p766
I3
sVUin
p767
I0
sVNickName
p768
V\u516c\u4f17\u5e73\u53f0\u5b89\u5168\u52a9\u624b
p769
sVAppAccountFlag
p770
I0
sVVerifyFlag
p771
I24
sVRemarkPYQuanPin
p772
g52
sVHeadImgUrl
p773
V/cgi-bin/mmwebwx-bin/webwxgeticon?seq=600880067&username=@7787175e5627440db01604c19284ab62&skey=@crypt_bda10ae4_84e5417b8b6cae756e9cea834dbd387f
p774
sVKeyWord
p775
Vmph
p776
sVProvince
p777
V\u5e7f\u4e1c
p778
sVPYInitial
p779
VGZPTAQZS
p780
sVRemarkName
p781
g52
sVIsOwner
p782
I0
sVSex
p783
I0
sVStarFriend
p784
I0
sVHideInputBarFlag
p785
I0
sVChatRoomId
p786
I0
sVEncryChatRoomId
p787
g52
sVAttrStatus
p788
I98459
sVStatues
p789
I0
stp790
Rp791
I1
bag34
(g748
g39
(dp792
VUserName
p793
V@f4baeab43c6f819f72d3253055c80a03
p794
sVCity
p795
V\u897f\u57ce
p796
sVSnsFlag
p797
I0
sVDisplayName
p798
g52
sVUniFriend
p799
I0
sVMemberCount
p800
I0
sVOwnerUin
p801
I0
sVMemberList
p802
g50
sVAlias
p803
g52
sVPYQuanPin
p804
Vzhongguoliantong
p805
sVSignature
p806
V\u4e2d\u56fd\u8054\u901a\u5fae\u4fe1\u8425\u4e1a\u5385\uff0c\u4fbf\u6377\u968f\u8eab\uff0c\u67e5\u8be2\u529e\u7406\u4e00\u952e\u641e\u5b9a\uff0c\u8fd8\u6709\u5ba2\u670dMM\u8d34\u5fc3\u89e3\u5fe7\uff0c\u66f4\u591a\u8d44\u8baf\u63a8\u8350\u4e0e\u60a8\u5206\u4eab\u3002\u656c\u8bf7\u5149\u4e34\uff0c\u671f\u5f85\u60ca\u559c\uff01
p807
sVRemarkPYInitial
p808
g52
sVContactFlag
p809
I3
sVUin
p810
I0
sVNickName
p811
V\u4e2d\u56fd\u8054\u901a
p812
sVAppAccountFlag
p813
I0
sVVerifyFlag
p814
I24
sVRemarkPYQuanPin
p815
g52
sVHeadImgUrl
p816
V/cgi-bin/mmwebwx-bin/webwxgeticon?seq=603850307&username=@f4baeab43c6f819f72d3253055c80a03&skey=@crypt_bda10ae4_84e5417b8b6cae756e9cea834dbd387f
p817
sVKeyWord
p818
Vgh_
p819
sVProvince
p820
V\u5317\u4eac
p821
sVPYInitial
p822
VZGLT
p823
sVRemarkName
p824
g52
sVIsOwner
p825
I0
sVSex
p826
I0
sVStarFriend
p827
I0
sVHideInputBarFlag
p828
I0
sVChatRoomId
p829
I0
sVEncryChatRoomId
p830
g52
sVAttrStatus
p831
I0
sVStatues
p832
I0
stp833
Rp834
I1
batp835
Rp836
I1
bssS'loginInfo'
p837
(dp838
S'SyncKey'
p839
(dp840
VCount
p841
I4
sVList
p842
(lp843
(dp844
VVal
p845
I606870805
sVKey
p846
I1
sa(dp847
VVal
p848
I606871917
sVKey
p849
I2
sa(dp850
VVal
p851
I606870864
sVKey
p852
I3
sa(dp853
VVal
p854
I1493891821
sVKey
p855
I1000
sassS'syncUrl'
p856
S'https://webpush.wx2.qq.com/cgi-bin/mmwebwx-bin'
p857
sS'skey'
p858
V@crypt_bda10ae4_84e5417b8b6cae756e9cea834dbd387f
p859
sS'wxuin'
p860
V3413407412
p861
sS'synckey'
p862
S'1_606870805|2_606871917|3_606870864|1000_1493891821'
p863
sS'url'
p864
Vhttps://wx2.qq.com/cgi-bin/mmwebwx-bin
p865
sS'pass_ticket'
p866
VghnV78X8BJrJEq%2Fx4ia3iK8JDyAhpmhaDPcsf8EyOlv0RV5nY1uAJxbgPfHJJBEe
p867
sS'deviceid'
p868
S'e261870612481986'
p869
sS'wxsid'
p870
VEmIFFJD5iBC7Czhz
p871
sS'InviteStartCount'
p872
I40
sS'fileUrl'
p873
S'https://file.wx2.qq.com/cgi-bin/mmwebwx-bin'
p874
sS'BaseRequest'
p875
(dp876
g54
g861
sS'Skey'
p877
g859
sS'DeviceID'
p878
g867
sS'Sid'
p879
g871
ssS'User'
p880
g34
(g38
g39
(dp881
g41
g31
sg42
g43
sg44
g43
sg45
I0
sg47
g50
sg51
g52
sg53
g52
sg77
I0
sg55
I0
sg56
I0
sg57
g43
sg58
g43
sg59
g52
sg60
g52
sg61
I0
sg62
I0
sg63
I1
sg64
g43
sg65
I0
sg68
I0
sg66
I0
sg67
I0
sg46
I0
sg69
g43
sg70
g52
sg71
I0
sg72
g73
sg74
g52
sg75
g76
sg54
I3413407412
sg78
I0
sg79
I0
stp882
Rp883
I1
bss.