(dp0
S'cookies'
p1
(dp2
S'wxloadtime'
p3
S'1494218045'
p4
sS'webwx_data_ticket'
p5
S'gSfJLOWmLZNmQPNlUGmkejkP'
p6
sS'wxuin'
p7
S'3413407412'
p8
sS'login_frequency'
p9
S'2'
p10
sS'MM_WX_NOTIFY_STATE'
p11
S'1'
p12
sS'MM_WX_SOUND_STATE'
p13
g12
sS'webwx_auth_ticket'
p14
S'CIsBELfruqkCGoABA0/lfhhfXA1rArjRcs3Vh8rb8crHWhK3OA/2sycGh0lQlfhdd9hvlixaxKzuO7yY4JagZBgUvEaEZ/BBGSoSQLEc4augePCpYSWNBAWlZt7U9Y6erR/l0+C/U3Wqh7QqTFz3Ir5LTKIEi2jdIsBV6xFN85k+IB4fikaBbsCEJ/E='
p15
sS'last_wxuin'
p16
S'3413407412'
p17
sS'webwxuvid'
p18
S'41520c81ebbb9c0f70a7094c1f9c9176e4091e27c8c21ae23abea9e8eb5e46f281ca79188377c1f2172acda3b637dd64'
p19
sS'wxpluginkey'
p20
S'1494213942'
p21
sS'wxsid'
p22
S'XTXQLimXJw8hxcm6'
p23
sS'mm_lang'
p24
S'zh_CN'
p25
ssS'version'
p26
S'1.3.5'
p27
sS'storage'
p28
(dp29
S'userName'
p30
V@9e6f465620d6d5a9ba4e172fd8cd8368f3d2f10d2bbdc7dcf00a175d0ff4d04b
p31
sS'lastInputUserName'
p32
NsS'memberList'
p33
ccopy_reg
_reconstructor
p34
(cchatcore.storage.templates
ContactList
p35
c__builtin__
list
p36
(lp37
g34
(cchatcore.storage.templates
User
p38
c__builtin__
dict
p39
(dp40
S'UserName'
p41
g31
sS'City'
p42
S''
p43
sS'DisplayName'
p44
g43
sS'UniFriend'
p45
I0
sS'OwnerUin'
p46
I0
sS'MemberList'
p47
g34
(g35
g36
(lp48
tp49
Rp50
I1
bsS'PYQuanPin'
p51
V
p52
sS'RemarkPYInitial'
p53
g52
sS'Uin'
p54
I3413407412
sS'AppAccountFlag'
p55
I0
sS'VerifyFlag'
p56
I0
sS'Province'
p57
g43
sS'KeyWord'
p58
g43
sS'RemarkName'
p59
g52
sS'PYInitial'
p60
g52
sS'ChatRoomId'
p61
I0
sS'HideInputBarFlag'
p62
I0
sVHeadImgFlag
p63
I1
sS'EncryChatRoomId'
p64
g43
sS'AttrStatus'
p65
I0
sS'SnsFlag'
p66
I0
sS'MemberCount'
p67
I0
sVWebWxPluginSwitch
p68
I0
sS'Alias'
p69
g43
sS'Signature'
p70
g52
sS'ContactFlag'
p71
I0
sS'NickName'
p72
VAran
p73
sS'RemarkPYQuanPin'
p74
g52
sS'HeadImgUrl'
p75
V/cgi-bin/mmwebwx-bin/webwxgeticon?seq=1784795276&username=@9e6f465620d6d5a9ba4e172fd8cd8368f3d2f10d2bbdc7dcf00a175d0ff4d04b&skey=@crypt_bda10ae4_bbb9fbd7367daf7e733e72ba9a707f2d
p76
sS'Sex'
p77
I0
sS'StarFriend'
p78
I0
sS'Statues'
p79
I0
stp80
Rp81
I1
bag34
(g38
g39
(dp82
VUserName
p83
V@aa0e219050a871a37a08af24545683df1a937f75df2ea03616e2612525c5e135
p84
sVCity
p85
V\u4e1c\u57ce
p86
sVSnsFlag
p87
I49
sVDisplayName
p88
g52
sVUniFriend
p89
I0
sVMemberCount
p90
I0
sVOwnerUin
p91
I0
sVMemberList
p92
g50
sVAlias
p93
g52
sVPYQuanPin
p94
VYat3s
p95
sVSignature
p96
V\u4e00\u53ea\u7231\u73a9\u7684\u7a0b\u5e8f\u6c6a<span class="emoji emoji1f436"></span>
p97
sVRemarkPYInitial
p98
g52
sVContactFlag
p99
I3
sVUin
p100
I0
sVNickName
p101
VYat3s
p102
sVAppAccountFlag
p103
I0
sVVerifyFlag
p104
I0
sVRemarkPYQuanPin
p105
g52
sVHeadImgUrl
p106
V/cgi-bin/mmwebwx-bin/webwxgeticon?seq=603850332&username=@aa0e219050a871a37a08af24545683df1a937f75df2ea03616e2612525c5e135&skey=@crypt_bda10ae4_bbb9fbd7367daf7e733e72ba9a707f2d
p107
sVKeyWord
p108
g52
sVProvince
p109
V\u5317\u4eac
p110
sVPYInitial
p111
VYAT3S
p112
sVRemarkName
p113
g52
sVIsOwner
p114
I0
sVSex
p115
I1
sVStarFriend
p116
I0
sVHideInputBarFlag
p117
I0
sVChatRoomId
p118
I0
sVEncryChatRoomId
p119
g52
sVAttrStatus
p120
I37851239
sVStatues
p121
I0
stp122
Rp123
I1
bag34
(g38
g39
(dp124
VUserName
p125
V@c7665ebbfb2f6dd3cf0aaeed21c8db6094f5cd0cea8fa358353731b8db0c5bf8
p126
sVCity
p127
V\u8d63\u5dde
p128
sVSnsFlag
p129
I49
sVDisplayName
p130
g52
sVUniFriend
p131
I0
sVMemberCount
p132
I0
sVOwnerUin
p133
I0
sVMemberList
p134
g50
sVAlias
p135
g52
sVPYQuanPin
p136
Vxiaoliao15807504515
p137
sVSignature
p138
V\u4e0b\u8f88\u5b50\u6295\u80ce\u505a\u4e2a\u7537\u4eba\uff0c\u5a36\u4e2a\u50cf\u6211\u8fd9\u6837\u7684\u5973\u4eba\U0001f64815807504515
p139
sVRemarkPYInitial
p140
VELAINE
p141
sVContactFlag
p142
I3
sVUin
p143
I0
sVNickName
p144
V\u5c0f\u5ed6 15807504515
p145
sVAppAccountFlag
p146
I0
sVVerifyFlag
p147
I0
sVRemarkPYQuanPin
p148
VElaine
p149
sVHeadImgUrl
p150
V/cgi-bin/mmwebwx-bin/webwxgeticon?seq=603850127&username=@c7665ebbfb2f6dd3cf0aaeed21c8db6094f5cd0cea8fa358353731b8db0c5bf8&skey=@crypt_bda10ae4_bbb9fbd7367daf7e733e72ba9a707f2d
p151
sVKeyWord
p152
g52
sVProvince
p153
V\u6c5f\u897f
p154
sVPYInitial
p155
VXL15807504515
p156
sVRemarkName
p157
VElaine
p158
sVIsOwner
p159
I0
sVSex
p160
I2
sVStarFriend
p161
I0
sVHideInputBarFlag
p162
I0
sVChatRoomId
p163
I0
sVEncryChatRoomId
p164
g52
sVAttrStatus
p165
I69669
sVStatues
p166
I0
stp167
Rp168
I1
bag34
(g38
g39
(dp169
VUserName
p170
V@efb510b8004a4ffeb7e613789132c7af
p171
sVCity
p172
V\u8475\u9752\u533a
p173
sVSnsFlag
p174
I49
sVDisplayName
p175
g52
sVUniFriend
p176
I0
sVMemberCount
p177
I0
sVOwnerUin
p178
I0
sVMemberList
p179
g50
sVAlias
p180
g52
sVPYQuanPin
p181
Vspanclassemojiemoji1f335spanyezhier
p182
sVSignature
p183
V\u65f6\u5149\u6f2b\u957f\uff0c\u6709\u6211\u522b\u614c\u3002<span class="emoji emoji1f618"></span>
p184
sVRemarkPYInitial
p185
g52
sVContactFlag
p186
I3
sVUin
p187
I0
sVNickName
p188
V\U0001f335\u6930\u6c41\u513f
p189
sVAppAccountFlag
p190
I0
sVVerifyFlag
p191
I0
sVRemarkPYQuanPin
p192
g52
sVHeadImgUrl
p193
V/cgi-bin/mmwebwx-bin/webwxgeticon?seq=603850968&username=@efb510b8004a4ffeb7e613789132c7af&skey=@crypt_bda10ae4_bbb9fbd7367daf7e733e72ba9a707f2d
p194
sVKeyWord
p195
Vyev
p196
sVProvince
p197
V\u9999\u6e2f
p198
sVPYInitial
p199
VSPANCLASSEMOJIEMOJI1F335SPANYZE
p200
sVRemarkName
p201
g52
sVIsOwner
p202
I0
sVSex
p203
I2
sVStarFriend
p204
I0
sVHideInputBarFlag
p205
I0
sVChatRoomId
p206
I0
sVEncryChatRoomId
p207
g52
sVAttrStatus
p208
I67623
sVStatues
p209
I0
stp210
Rp211
I1
bag34
(g38
g39
(dp212
VUserName
p213
V@bcfdad0178afd46c9002a5169dbb2365c369a39a7aa4241416f3c2e4043cc07a
p214
sVCity
p215
g52
sVSnsFlag
p216
I17
sVDisplayName
p217
g52
sVUniFriend
p218
I0
sVMemberCount
p219
I0
sVOwnerUin
p220
I0
sVMemberList
p221
g50
sVAlias
p222
g52
sVPYQuanPin
p223
Vxiaodeqiu
p224
sVSignature
p225
V\u5b66\u800c\u4e0d\u601d\u5219\u7f54\uff0c\u54c8\u54c8
p226
sVRemarkPYInitial
p227
g52
sVContactFlag
p228
I3
sVUin
p229
I0
sVNickName
p230
V\u5c0f\u5730\u7403
p231
sVAppAccountFlag
p232
I0
sVVerifyFlag
p233
I0
sVRemarkPYQuanPin
p234
g52
sVHeadImgUrl
p235
V/cgi-bin/mmwebwx-bin/webwxgeticon?seq=603851078&username=@bcfdad0178afd46c9002a5169dbb2365c369a39a7aa4241416f3c2e4043cc07a&skey=@crypt_bda10ae4_bbb9fbd7367daf7e733e72ba9a707f2d
p236
sVKeyWord
p237
g52
sVProvince
p238
VFrankfurt
p239
sVPYInitial
p240
VXDQ
p241
sVRemarkName
p242
g52
sVIsOwner
p243
I0
sVSex
p244
I1
sVStarFriend
p245
I0
sVHideInputBarFlag
p246
I0
sVChatRoomId
p247
I0
sVEncryChatRoomId
p248
g52
sVAttrStatus
p249
I33789989
sVStatues
p250
I0
stp251
Rp252
I1
bag34
(g38
g39
(dp253
VUserName
p254
V@4fa43cf0b124ffef7193f0a419f92bd5b16b78f9cc68a5c5a8f493de12e0f973
p255
sVCity
p256
g52
sVSnsFlag
p257
I49
sVDisplayName
p258
g52
sVUniFriend
p259
I0
sVMemberCount
p260
I0
sVOwnerUin
p261
I0
sVMemberList
p262
g50
sVAlias
p263
g52
sVPYQuanPin
p264
Vechoxiaomeng
p265
sVSignature
p266
V\u65e2\u7136\u7434\u745f\u8d77
p267
sVRemarkPYInitial
p268
g52
sVContactFlag
p269
I3
sVUin
p270
I0
sVNickName
p271
Vecho\u5c0f\u840c
p272
sVAppAccountFlag
p273
I0
sVVerifyFlag
p274
I0
sVRemarkPYQuanPin
p275
g52
sVHeadImgUrl
p276
V/cgi-bin/mmwebwx-bin/webwxgeticon?seq=603851910&username=@4fa43cf0b124ffef7193f0a419f92bd5b16b78f9cc68a5c5a8f493de12e0f973&skey=@crypt_bda10ae4_bbb9fbd7367daf7e733e72ba9a707f2d
p277
sVKeyWord
p278
g52
sVProvince
p279
V\u5317\u4eac
p280
sVPYInitial
p281
VECHOXM
p282
sVRemarkName
p283
g52
sVIsOwner
p284
I0
sVSex
p285
I2
sVStarFriend
p286
I0
sVHideInputBarFlag
p287
I0
sVChatRoomId
p288
I0
sVEncryChatRoomId
p289
g52
sVAttrStatus
p290
I67224677
sVStatues
p291
I0
stp292
Rp293
I1
bag34
(g38
g39
(dp294
VUserName
p295
V@d3a860a9ef9a712662ea06832f19343c7ffe86ca8da535db614bd30ab1d816be
p296
sVCity
p297
g52
sVSnsFlag
p298
I17
sVDisplayName
p299
g52
sVUniFriend
p300
I0
sVMemberCount
p301
I0
sVOwnerUin
p302
I0
sVMemberList
p303
g50
sVAlias
p304
g52
sVPYQuanPin
p305
Vmeiguishilichunfeng
p306
sVSignature
p307
V\u800c\u4eca\u6811\u58ee\u5fd7        \u4ee5\u5f85\u626c\u56fd\u5a01
p308
sVRemarkPYInitial
p309
g52
sVContactFlag
p310
I3
sVUin
p311
I0
sVNickName
p312
V[\u73ab\u7470]\u5341\u91cc\u6625\u98ce
p313
sVAppAccountFlag
p314
I0
sVVerifyFlag
p315
I0
sVRemarkPYQuanPin
p316
g52
sVHeadImgUrl
p317
V/cgi-bin/mmwebwx-bin/webwxgeticon?seq=603852839&username=@d3a860a9ef9a712662ea06832f19343c7ffe86ca8da535db614bd30ab1d816be&skey=@crypt_bda10ae4_bbb9fbd7367daf7e733e72ba9a707f2d
p318
sVKeyWord
p319
g52
sVProvince
p320
VParis
p321
sVPYInitial
p322
VMGSLCF
p323
sVRemarkName
p324
g52
sVIsOwner
p325
I0
sVSex
p326
I1
sVStarFriend
p327
I0
sVHideInputBarFlag
p328
I0
sVChatRoomId
p329
I0
sVEncryChatRoomId
p330
g52
sVAttrStatus
p331
I102439
sVStatues
p332
I0
stp333
Rp334
I1
bag34
(g38
g39
(dp335
VUserName
p336
V@0704d2c2e74baa947d7644b993a02fd0
p337
sVCity
p338
V\u671d\u9633
p339
sVSnsFlag
p340
I49
sVDisplayName
p341
g52
sVUniFriend
p342
I0
sVMemberCount
p343
I0
sVOwnerUin
p344
I0
sVMemberList
p345
g50
sVAlias
p346
g52
sVPYQuanPin
p347
Vspanclassemojiemoji1f343span
p348
sVSignature
p349
V<span class="emoji emoji2708"></span>\ufe0f
p350
sVRemarkPYInitial
p351
g52
sVContactFlag
p352
I3
sVUin
p353
I0
sVNickName
p354
V\U0001f343
p355
sVAppAccountFlag
p356
I0
sVVerifyFlag
p357
I0
sVRemarkPYQuanPin
p358
g52
sVHeadImgUrl
p359
V/cgi-bin/mmwebwx-bin/webwxgeticon?seq=606870188&username=@0704d2c2e74baa947d7644b993a02fd0&skey=@crypt_bda10ae4_bbb9fbd7367daf7e733e72ba9a707f2d
p360
sVKeyWord
p361
VYE1
p362
sVProvince
p363
V\u5317\u4eac
p364
sVPYInitial
p365
VSPANCLASSEMOJIEMOJI1F343SPAN
p366
sVRemarkName
p367
g52
sVIsOwner
p368
I0
sVSex
p369
I2
sVStarFriend
p370
I0
sVHideInputBarFlag
p371
I0
sVChatRoomId
p372
I0
sVEncryChatRoomId
p373
g52
sVAttrStatus
p374
I229863
sVStatues
p375
I0
stp376
Rp377
I1
bag34
(g38
g39
(dp378
VUserName
p379
V@b7bb3365abfbb6a5669656c5078869f7ae200092a35760da318f1a6611401234
p380
sVCity
p381
V\u671d\u9633
p382
sVSnsFlag
p383
I17
sVDisplayName
p384
g52
sVUniFriend
p385
I0
sVMemberCount
p386
I0
sVOwnerUin
p387
I0
sVMemberList
p388
g50
sVAlias
p389
g52
sVPYQuanPin
p390
VKerry
p391
sVSignature
p392
V\u4ee5\u68a6\u4e3a\u9a6c\uff0c\u4e0d\u8d1f\u97f6\u534e
p393
sVRemarkPYInitial
p394
g52
sVContactFlag
p395
I3
sVUin
p396
I0
sVNickName
p397
VKerry
p398
sVAppAccountFlag
p399
I0
sVVerifyFlag
p400
I0
sVRemarkPYQuanPin
p401
g52
sVHeadImgUrl
p402
V/cgi-bin/mmwebwx-bin/webwxgeticon?seq=603850763&username=@b7bb3365abfbb6a5669656c5078869f7ae200092a35760da318f1a6611401234&skey=@crypt_bda10ae4_bbb9fbd7367daf7e733e72ba9a707f2d
p403
sVKeyWord
p404
g52
sVProvince
p405
V\u5317\u4eac
p406
sVPYInitial
p407
VKERRY
p408
sVRemarkName
p409
g52
sVIsOwner
p410
I0
sVSex
p411
I2
sVStarFriend
p412
I0
sVHideInputBarFlag
p413
I0
sVChatRoomId
p414
I0
sVEncryChatRoomId
p415
g52
sVAttrStatus
p416
I33674359
sVStatues
p417
I0
stp418
Rp419
I1
bag34
(g38
g39
(dp420
VUserName
p421
V@96b060a30e20496b1094e1e99ac7391517b7efa5852bd06a3a09e7f72d2c5188
p422
sVCity
p423
g52
sVSnsFlag
p424
I17
sVDisplayName
p425
g52
sVUniFriend
p426
I0
sVMemberCount
p427
I0
sVOwnerUin
p428
I0
sVMemberList
p429
g50
sVAlias
p430
g52
sVPYQuanPin
p431
Vspanclassemojiemoji1f33espancaoyispanclassemojiemoji1f33espan
p432
sVSignature
p433
V\u6709\u82b1\u6709\u6708\u6709\u697c\u53f0 \u4e0d\u98ce\u6d41\u5904\u4e5f\u98ce\u6d41
p434
sVRemarkPYInitial
p435
g52
sVContactFlag
p436
I3
sVUin
p437
I0
sVNickName
p438
V\U0001f33e\u8349\u4e59\U0001f33e
p439
sVAppAccountFlag
p440
I0
sVVerifyFlag
p441
I0
sVRemarkPYQuanPin
p442
g52
sVHeadImgUrl
p443
V/cgi-bin/mmwebwx-bin/webwxgeticon?seq=606870864&username=@96b060a30e20496b1094e1e99ac7391517b7efa5852bd06a3a09e7f72d2c5188&skey=@crypt_bda10ae4_bbb9fbd7367daf7e733e72ba9a707f2d
p444
sVKeyWord
p445
g52
sVProvince
p446
g52
sVPYInitial
p447
VSPANCLASSEMOJIEMOJI1F33ESPANCYSPANCLASSEMOJIEMOJI1F33ESPAN
p448
sVRemarkName
p449
g52
sVIsOwner
p450
I0
sVSex
p451
I2
sVStarFriend
p452
I0
sVHideInputBarFlag
p453
I0
sVChatRoomId
p454
I0
sVEncryChatRoomId
p455
g52
sVAttrStatus
p456
I33654821
sVStatues
p457
I0
stp458
Rp459
I1
bag34
(g38
g39
(dp460
VUserName
p461
V@6edea2532dec2302de148a49c74ed451d943c52a0bc23ecaf36a8c9ef29b1c23
p462
sVCity
p463
g52
sVSnsFlag
p464
I49
sVDisplayName
p465
g52
sVUniFriend
p466
I0
sVMemberCount
p467
I0
sVOwnerUin
p468
I0
sVMemberList
p469
g50
sVAlias
p470
g52
sVPYQuanPin
p471
Vluojunyu
p472
sVSignature
p473
V\u5170\u5c3c\u65af\u7279\u6709\u89c9\u5fc5\u7761
p474
sVRemarkPYInitial
p475
g52
sVContactFlag
p476
I3
sVUin
p477
I0
sVNickName
p478
V\u7f57\u4fca\u5b87
p479
sVAppAccountFlag
p480
I0
sVVerifyFlag
p481
I0
sVRemarkPYQuanPin
p482
g52
sVHeadImgUrl
p483
V/cgi-bin/mmwebwx-bin/webwxgeticon?seq=606872127&username=@6edea2532dec2302de148a49c74ed451d943c52a0bc23ecaf36a8c9ef29b1c23&skey=@crypt_bda10ae4_bbb9fbd7367daf7e733e72ba9a707f2d
p484
sVKeyWord
p485
VSil
p486
sVProvince
p487
g52
sVPYInitial
p488
VLJY
p489
sVRemarkName
p490
g52
sVIsOwner
p491
I0
sVSex
p492
I1
sVStarFriend
p493
I0
sVHideInputBarFlag
p494
I0
sVChatRoomId
p495
I0
sVEncryChatRoomId
p496
g52
sVAttrStatus
p497
I106747
sVStatues
p498
I0
stp499
Rp500
I1
batp501
Rp502
I1
bsS'chatroomList'
p503
g34
(g35
g36
(lp504
g34
(cchatcore.storage.templates
Chatroom
p505
g39
(dp506
VUserName
p507
V@@348efe148ef92ca6019b187405479e508f9ef76bed9bbb3bd38314ce658f3eb8
p508
sVCity
p509
g52
sVDisplayName
p510
g52
sVUniFriend
p511
I0
sS'Self'
p512
g34
(g38
g39
(dp513
g41
g31
sg42
g43
sg44
g43
sg45
I0
sg46
I0
sg47
g34
(g35
g36
(lp514
tp515
Rp516
I1
bsg51
g52
sg53
g52
sg54
I3413407412
sg55
I0
sg56
I0
sg57
g43
sg58
g43
sg59
g52
sg60
g52
sg61
I0
sg62
I0
sg63
I1
sg64
g43
sg65
I0
sg66
I0
sg67
I0
sg68
I0
sg69
g43
sg70
g52
sg71
I0
sg72
g73
sg74
g52
sg75
g76
sg77
I0
sg78
I0
sg79
I0
stp517
Rp518
I1
bsVMemberList
p519
g34
(g35
g36
(lp520
tp521
Rp522
I1
bsVPYQuanPin
p523
g52
sVRemarkPYInitial
p524
g52
sVSex
p525
I0
sVAppAccountFlag
p526
I0
sVVerifyFlag
p527
I0
sVProvince
p528
g52
sVKeyWord
p529
g52
sVRemarkName
p530
g52
sVPYInitial
p531
g52
sVIsOwner
p532
I0
sVChatRoomId
p533
I0
sVHideInputBarFlag
p534
I0
sVEncryChatRoomId
p535
g52
sVAttrStatus
p536
I0
sVSnsFlag
p537
I0
sVMemberCount
p538
I3
sVOwnerUin
p539
I0
sVAlias
p540
g52
sS'IsAdmin'
p541
NsVSignature
p542
g52
sVContactFlag
p543
I0
sVNickName
p544
VAranFactory
p545
sVRemarkPYQuanPin
p546
g52
sVHeadImgUrl
p547
V/cgi-bin/mmwebwx-bin/webwxgetheadimg?seq=0&username=@@348efe148ef92ca6019b187405479e508f9ef76bed9bbb3bd38314ce658f3eb8&skey=@crypt_bda10ae4_bbb9fbd7367daf7e733e72ba9a707f2d
p548
sVUin
p549
I0
sVStarFriend
p550
I0
sVStatues
p551
I1
stp552
Rp553
I1
bag34
(g505
g39
(dp554
VUserName
p555
V@@16f5e0da577427552090e5b2341cb64fec92def8389a4248cbbc342d0c8cd873
p556
sVCity
p557
g52
sVDisplayName
p558
g52
sVUniFriend
p559
I0
sg512
g34
(g38
g39
(dp560
g41
g31
sg42
g43
sg44
g43
sg45
I0
sg46
I0
sg47
g34
(g35
g36
(lp561
tp562
Rp563
I1
bsg51
g52
sg53
g52
sg54
I3413407412
sg55
I0
sg56
I0
sg57
g43
sg58
g43
sg59
g52
sg60
g52
sg61
I0
sg62
I0
sg63
I1
sg64
g43
sg65
I0
sg66
I0
sg67
I0
sg68
I0
sg69
g43
sg70
g52
sg71
I0
sg72
g73
sg74
g52
sg75
g76
sg77
I0
sg78
I0
sg79
I0
stp564
Rp565
I1
bsVMemberList
p566
g34
(g35
g36
(lp567
tp568
Rp569
I1
bsVPYQuanPin
p570
g52
sVRemarkPYInitial
p571
g52
sVSex
p572
I0
sVAppAccountFlag
p573
I0
sVVerifyFlag
p574
I0
sVProvince
p575
g52
sVKeyWord
p576
g52
sVRemarkName
p577
g52
sVPYInitial
p578
g52
sVIsOwner
p579
I0
sVChatRoomId
p580
I0
sVHideInputBarFlag
p581
I0
sVEncryChatRoomId
p582
g52
sVAttrStatus
p583
I0
sVSnsFlag
p584
I0
sVMemberCount
p585
I8
sVOwnerUin
p586
I0
sVAlias
p587
g52
sg541
NsVSignature
p588
g52
sVContactFlag
p589
I2
sVNickName
p590
V\u7ea2\u5305\u96e8
p591
sVRemarkPYQuanPin
p592
g52
sVHeadImgUrl
p593
V/cgi-bin/mmwebwx-bin/webwxgetheadimg?seq=603850892&username=@@16f5e0da577427552090e5b2341cb64fec92def8389a4248cbbc342d0c8cd873&skey=@crypt_bda10ae4_bbb9fbd7367daf7e733e72ba9a707f2d
p594
sVUin
p595
I0
sVStarFriend
p596
I0
sVStatues
p597
I1
stp598
Rp599
I1
bag34
(g505
g39
(dp600
VUserName
p601
V@@f4489af5a31700d368b196d74e4f755cc09177cb16156f7a0d7b678c8fe6e851
p602
sVCity
p603
g52
sVDisplayName
p604
g52
sVUniFriend
p605
I0
sg512
g34
(g38
g39
(dp606
g41
g31
sg42
g43
sg44
g43
sg45
I0
sg46
I0
sg47
g34
(g35
g36
(lp607
tp608
Rp609
I1
bsg51
g52
sg53
g52
sg54
I3413407412
sg55
I0
sg56
I0
sg57
g43
sg58
g43
sg59
g52
sg60
g52
sg61
I0
sg62
I0
sg63
I1
sg64
g43
sg65
I0
sg66
I0
sg67
I0
sg68
I0
sg69
g43
sg70
g52
sg71
I0
sg72
g73
sg74
g52
sg75
g76
sg77
I0
sg78
I0
sg79
I0
stp610
Rp611
I1
bsVMemberList
p612
g34
(g35
g36
(lp613
tp614
Rp615
I1
bsVPYQuanPin
p616
g52
sVRemarkPYInitial
p617
g52
sVSex
p618
I0
sVAppAccountFlag
p619
I0
sVVerifyFlag
p620
I0
sVProvince
p621
g52
sVKeyWord
p622
g52
sVRemarkName
p623
g52
sVPYInitial
p624
g52
sVIsOwner
p625
I0
sVChatRoomId
p626
I0
sVHideInputBarFlag
p627
I0
sVEncryChatRoomId
p628
g52
sVAttrStatus
p629
I0
sVSnsFlag
p630
I0
sVMemberCount
p631
I10
sVOwnerUin
p632
I0
sVAlias
p633
g52
sg541
NsVSignature
p634
g52
sVContactFlag
p635
I0
sVNickName
p636
V\u5bbe\u679c\u8001\u55e8\uff0c\u5bbe\u679c\u4efd\u4f4e
p637
sVRemarkPYQuanPin
p638
g52
sVHeadImgUrl
p639
V/cgi-bin/mmwebwx-bin/webwxgetheadimg?seq=0&username=@@f4489af5a31700d368b196d74e4f755cc09177cb16156f7a0d7b678c8fe6e851&skey=@crypt_bda10ae4_bbb9fbd7367daf7e733e72ba9a707f2d
p640
sVUin
p641
I0
sVStarFriend
p642
I0
sVStatues
p643
I0
stp644
Rp645
I1
bag34
(g505
g39
(dp646
VUserName
p647
V@@4fafe6539665b094be9ebb58478fb880f17a673c3563074a94e6936531f3f0c4
p648
sVCity
p649
g52
sVDisplayName
p650
g52
sVUniFriend
p651
I0
sg512
g34
(g38
g39
(dp652
g41
g31
sg42
g43
sg44
g43
sg45
I0
sg46
I0
sg47
g34
(g35
g36
(lp653
tp654
Rp655
I1
bsg51
g52
sg53
g52
sg54
I3413407412
sg55
I0
sg56
I0
sg57
g43
sg58
g43
sg59
g52
sg60
g52
sg61
I0
sg62
I0
sg63
I1
sg64
g43
sg65
I0
sg66
I0
sg67
I0
sg68
I0
sg69
g43
sg70
g52
sg71
I0
sg72
g73
sg74
g52
sg75
g76
sg77
I0
sg78
I0
sg79
I0
stp656
Rp657
I1
bsVMemberList
p658
g34
(g35
g36
(lp659
tp660
Rp661
I1
bsVPYQuanPin
p662
g52
sVRemarkPYInitial
p663
g52
sVSex
p664
I0
sVAppAccountFlag
p665
I0
sVVerifyFlag
p666
I0
sVProvince
p667
g52
sVKeyWord
p668
g52
sVRemarkName
p669
g52
sVPYInitial
p670
g52
sVIsOwner
p671
I0
sVChatRoomId
p672
I0
sVHideInputBarFlag
p673
I0
sVEncryChatRoomId
p674
g52
sVAttrStatus
p675
I0
sVSnsFlag
p676
I0
sVMemberCount
p677
I3
sVOwnerUin
p678
I0
sVAlias
p679
g52
sg541
NsVSignature
p680
g52
sVContactFlag
p681
I0
sVNickName
p682
V\u53f6\u840c\u7136
p683
sVRemarkPYQuanPin
p684
g52
sVHeadImgUrl
p685
V/cgi-bin/mmwebwx-bin/webwxgetheadimg?seq=0&username=@@4fafe6539665b094be9ebb58478fb880f17a673c3563074a94e6936531f3f0c4&skey=@crypt_bda10ae4_bbb9fbd7367daf7e733e72ba9a707f2d
p686
sVUin
p687
I0
sVStarFriend
p688
I0
sVStatues
p689
I1
stp690
Rp691
I1
bag34
(g505
g39
(dp692
VUserName
p693
V@@cc8c6a34c90033e1b728c5a36b050fcb6cb3166443ffafdc409c2d0d56bf992e
p694
sVCity
p695
g52
sVDisplayName
p696
g52
sVUniFriend
p697
I0
sg512
g34
(g38
g39
(dp698
g41
g31
sg42
g43
sg44
g43
sg45
I0
sg46
I0
sg47
g34
(g35
g36
(lp699
tp700
Rp701
I1
bsg51
g52
sg53
g52
sg54
I3413407412
sg55
I0
sg56
I0
sg57
g43
sg58
g43
sg59
g52
sg60
g52
sg61
I0
sg62
I0
sg63
I1
sg64
g43
sg65
I0
sg66
I0
sg67
I0
sg68
I0
sg69
g43
sg70
g52
sg71
I0
sg72
g73
sg74
g52
sg75
g76
sg77
I0
sg78
I0
sg79
I0
stp702
Rp703
I1
bsVMemberList
p704
g34
(g35
g36
(lp705
tp706
Rp707
I1
bsVPYQuanPin
p708
g52
sVRemarkPYInitial
p709
g52
sVSex
p710
I0
sVAppAccountFlag
p711
I0
sVVerifyFlag
p712
I0
sVProvince
p713
g52
sVKeyWord
p714
g52
sVRemarkName
p715
g52
sVPYInitial
p716
g52
sVIsOwner
p717
I0
sVChatRoomId
p718
I0
sVHideInputBarFlag
p719
I0
sVEncryChatRoomId
p720
g52
sVAttrStatus
p721
I0
sVSnsFlag
p722
I0
sVMemberCount
p723
I8
sVOwnerUin
p724
I0
sVAlias
p725
g52
sg541
NsVSignature
p726
g52
sVContactFlag
p727
I2
sVNickName
p728
Vbdp\u79fb\u52a8\u7ec4
p729
sVRemarkPYQuanPin
p730
g52
sVHeadImgUrl
p731
V/cgi-bin/mmwebwx-bin/webwxgetheadimg?seq=606871315&username=@@cc8c6a34c90033e1b728c5a36b050fcb6cb3166443ffafdc409c2d0d56bf992e&skey=@crypt_bda10ae4_bbb9fbd7367daf7e733e72ba9a707f2d
p732
sVUin
p733
I0
sVStarFriend
p734
I0
sVStatues
p735
I1
stp736
Rp737
I1
bag34
(g505
g39
(dp738
VUserName
p739
V@@83a0c125a374f843d7d24f22e4a73a5af81bf062de59f8841893fdb9ac604046
p740
sVCity
p741
g52
sVDisplayName
p742
g52
sVUniFriend
p743
I0
sg512
g34
(g38
g39
(dp744
g41
g31
sg42
g43
sg44
g43
sg45
I0
sg46
I0
sg47
g34
(g35
g36
(lp745
tp746
Rp747
I1
bsg51
g52
sg53
g52
sg54
I3413407412
sg55
I0
sg56
I0
sg57
g43
sg58
g43
sg59
g52
sg60
g52
sg61
I0
sg62
I0
sg63
I1
sg64
g43
sg65
I0
sg66
I0
sg67
I0
sg68
I0
sg69
g43
sg70
g52
sg71
I0
sg72
g73
sg74
g52
sg75
g76
sg77
I0
sg78
I0
sg79
I0
stp748
Rp749
I1
bsVMemberList
p750
g34
(g35
g36
(lp751
tp752
Rp753
I1
bsVPYQuanPin
p754
g52
sVRemarkPYInitial
p755
g52
sVSex
p756
I0
sVAppAccountFlag
p757
I0
sVVerifyFlag
p758
I0
sVProvince
p759
g52
sVKeyWord
p760
g52
sVRemarkName
p761
g52
sVPYInitial
p762
g52
sVIsOwner
p763
I0
sVChatRoomId
p764
I0
sVHideInputBarFlag
p765
I0
sVEncryChatRoomId
p766
g52
sVAttrStatus
p767
I0
sVSnsFlag
p768
I0
sVMemberCount
p769
I3
sVOwnerUin
p770
I0
sVAlias
p771
g52
sg541
NsVSignature
p772
g52
sVContactFlag
p773
I0
sVNickName
p774
VYat3s,\U0001f916\u963f\u798f,Aran
p775
sVRemarkPYQuanPin
p776
g52
sVHeadImgUrl
p777
V/cgi-bin/mmwebwx-bin/webwxgetheadimg?seq=0&username=@@83a0c125a374f843d7d24f22e4a73a5af81bf062de59f8841893fdb9ac604046&skey=@crypt_bda10ae4_bbb9fbd7367daf7e733e72ba9a707f2d
p778
sVUin
p779
I0
sVStarFriend
p780
I0
sVStatues
p781
I1
stp782
Rp783
I1
batp784
Rp785
I1
bsS'nickName'
p786
g73
sS'mpList'
p787
g34
(g35
g36
(lp788
g34
(cchatcore.storage.templates
MassivePlatform
p789
g39
(dp790
VUserName
p791
V@287b7b2a4470b2cbf863fb5145ee5cab
p792
sVCity
p793
V\u5e7f\u5dde
p794
sVSnsFlag
p795
I0
sVDisplayName
p796
g52
sVUniFriend
p797
I0
sVMemberCount
p798
I0
sVOwnerUin
p799
I0
sVMemberList
p800
g50
sVAlias
p801
g52
sVPYQuanPin
p802
Vgongzhongpingtaianquanzhushou
p803
sVSignature
p804
V\u63d0\u4f9b\u5fae\u4fe1\u516c\u4f17\u53f7\u767b\u5f55\u548c\u7fa4\u53d1\u7b49\u5b89\u5168\u64cd\u4f5c\uff0c\u5728\u624b\u673a\u4e0a\u67e5\u6536\u6d88\u606f\u3001\u8bc4\u8bba\u3001\u8d5e\u8d4f\uff0c\u65b0\u5efa\u7fa4\u53d1\u548c\u67e5\u770b\u7fa4\u53d1\u5386\u53f2\u3002
p805
sVRemarkPYInitial
p806
g52
sVContactFlag
p807
I3
sVUin
p808
I0
sVNickName
p809
V\u516c\u4f17\u5e73\u53f0\u5b89\u5168\u52a9\u624b
p810
sVAppAccountFlag
p811
I0
sVVerifyFlag
p812
I24
sVRemarkPYQuanPin
p813
g52
sVHeadImgUrl
p814
V/cgi-bin/mmwebwx-bin/webwxgeticon?seq=600880067&username=@287b7b2a4470b2cbf863fb5145ee5cab&skey=@crypt_bda10ae4_bbb9fbd7367daf7e733e72ba9a707f2d
p815
sVKeyWord
p816
Vmph
p817
sVProvince
p818
V\u5e7f\u4e1c
p819
sVPYInitial
p820
VGZPTAQZS
p821
sVRemarkName
p822
g52
sVIsOwner
p823
I0
sVSex
p824
I0
sVStarFriend
p825
I0
sVHideInputBarFlag
p826
I0
sVChatRoomId
p827
I0
sVEncryChatRoomId
p828
g52
sVAttrStatus
p829
I98459
sVStatues
p830
I0
stp831
Rp832
I1
bag34
(g789
g39
(dp833
VUserName
p834
V@3968b9e1193802ee4e4d8098b971e39c
p835
sVCity
p836
V\u897f\u57ce
p837
sVSnsFlag
p838
I0
sVDisplayName
p839
g52
sVUniFriend
p840
I0
sVMemberCount
p841
I0
sVOwnerUin
p842
I0
sVMemberList
p843
g50
sVAlias
p844
g52
sVPYQuanPin
p845
Vzhongguoliantong
p846
sVSignature
p847
V\u4e2d\u56fd\u8054\u901a\u5fae\u4fe1\u8425\u4e1a\u5385\uff0c\u4fbf\u6377\u968f\u8eab\uff0c\u67e5\u8be2\u529e\u7406\u4e00\u952e\u641e\u5b9a\uff0c\u8fd8\u6709\u5ba2\u670dMM\u8d34\u5fc3\u89e3\u5fe7\uff0c\u66f4\u591a\u8d44\u8baf\u63a8\u8350\u4e0e\u60a8\u5206\u4eab\u3002\u656c\u8bf7\u5149\u4e34\uff0c\u671f\u5f85\u60ca\u559c\uff01
p848
sVRemarkPYInitial
p849
g52
sVContactFlag
p850
I3
sVUin
p851
I0
sVNickName
p852
V\u4e2d\u56fd\u8054\u901a
p853
sVAppAccountFlag
p854
I0
sVVerifyFlag
p855
I24
sVRemarkPYQuanPin
p856
g52
sVHeadImgUrl
p857
V/cgi-bin/mmwebwx-bin/webwxgeticon?seq=603850307&username=@3968b9e1193802ee4e4d8098b971e39c&skey=@crypt_bda10ae4_bbb9fbd7367daf7e733e72ba9a707f2d
p858
sVKeyWord
p859
Vgh_
p860
sVProvince
p861
V\u5317\u4eac
p862
sVPYInitial
p863
VZGLT
p864
sVRemarkName
p865
g52
sVIsOwner
p866
I0
sVSex
p867
I0
sVStarFriend
p868
I0
sVHideInputBarFlag
p869
I0
sVChatRoomId
p870
I0
sVEncryChatRoomId
p871
g52
sVAttrStatus
p872
I0
sVStatues
p873
I0
stp874
Rp875
I1
batp876
Rp877
I1
bssS'loginInfo'
p878
(dp879
S'SyncKey'
p880
(dp881
VCount
p882
I4
sVList
p883
(lp884
(dp885
VVal
p886
I606872580
sVKey
p887
I1
sa(dp888
VVal
p889
I606872632
sVKey
p890
I2
sa(dp891
VVal
p892
I606872127
sVKey
p893
I3
sa(dp894
VVal
p895
I1494213942
sVKey
p896
I1000
sassS'syncUrl'
p897
S'https://webpush.wx2.qq.com/cgi-bin/mmwebwx-bin'
p898
sS'skey'
p899
V@crypt_bda10ae4_bbb9fbd7367daf7e733e72ba9a707f2d
p900
sS'wxuin'
p901
V3413407412
p902
sS'synckey'
p903
S'1_606872580|2_606872632|3_606872127|1000_1494213942'
p904
sS'url'
p905
Vhttps://wx2.qq.com/cgi-bin/mmwebwx-bin
p906
sS'pass_ticket'
p907
VzKe7QllnbSvils1y5Nxw0KazKyqx82WG3IfIWIBZElTW9kap0Pb3S4hF1lgc2SQE
p908
sS'deviceid'
p909
S'e126771446416375'
p910
sS'wxsid'
p911
VXTXQLimXJw8hxcm6
p912
sS'InviteStartCount'
p913
I40
sS'fileUrl'
p914
S'https://file.wx2.qq.com/cgi-bin/mmwebwx-bin'
p915
sS'BaseRequest'
p916
(dp917
g54
g902
sS'Skey'
p918
g900
sS'DeviceID'
p919
g908
sS'Sid'
p920
g912
ssS'User'
p921
g34
(g38
g39
(dp922
g41
g31
sg42
g43
sg44
g43
sg45
I0
sg47
g50
sg51
g52
sg53
g52
sg77
I0
sg55
I0
sg56
I0
sg57
g43
sg58
g43
sg59
g52
sg60
g52
sg61
I0
sg62
I0
sg63
I1
sg64
g43
sg65
I0
sg68
I0
sg66
I0
sg67
I0
sg46
I0
sg69
g43
sg70
g52
sg71
I0
sg72
g73
sg74
g52
sg75
g76
sg54
I3413407412
sg78
I0
sg79
I0
stp923
Rp924
I1
bss.