(dp0
S'cookies'
p1
(dp2
S'wxloadtime'
p3
S'1493110805'
p4
sS'webwx_data_ticket'
p5
S'gSetCH2e+RSgwNiN2j+2L5q6'
p6
sS'wxuin'
p7
S'3413407412'
p8
sS'login_frequency'
p9
S'2'
p10
sS'MM_WX_NOTIFY_STATE'
p11
S'1'
p12
sS'MM_WX_SOUND_STATE'
p13
g12
sS'webwx_auth_ticket'
p14
S'CIsBELzu4j4agAFLccBFbInYalF6lZSYYz7K4EWYQ+ZwViSHpQ19USZE2ReM4vr5TyRvwPFwt/O/oqt+GMPwvg4hf8HTd8ve8+lDkVTL4f6sG12HjEt3O2g9x4bKlvqlfbkqbOBMZnBucLEgjVhIANe8jroiiFqLETEcEU3zmT4gHh+KRoFuwIQn8Q=='
p15
sS'last_wxuin'
p16
S'3413407412'
p17
sS'webwxuvid'
p18
S'0ad038a387f4269064e4a4417f4f53ec9b6b8052500512bb6d9a9cdb70b0d5658e9a36e194c37bd189fa24c747f67b04'
p19
sS'wxpluginkey'
p20
S'1493108933'
p21
sS'wxsid'
p22
S'cLA0OkYTGhgmcLZ+'
p23
sS'mm_lang'
p24
S'zh_CN'
p25
ssS'version'
p26
S'1.3.5'
p27
sS'storage'
p28
(dp29
S'userName'
p30
V@2d32ce0953fd4e7eb76e24e2c6b8f83e8fe12e959ee932525b172072425a7e6c
p31
sS'lastInputUserName'
p32
NsS'memberList'
p33
ccopy_reg
_reconstructor
p34
(citchat.storage.templates
ContactList
p35
c__builtin__
list
p36
(lp37
g34
(citchat.storage.templates
User
p38
c__builtin__
dict
p39
(dp40
S'UserName'
p41
g31
sS'City'
p42
S''
p43
sS'DisplayName'
p44
g43
sS'UniFriend'
p45
I0
sS'OwnerUin'
p46
I0
sS'MemberList'
p47
g34
(g35
g36
(lp48
tp49
Rp50
I1
bsS'PYQuanPin'
p51
V
p52
sS'RemarkPYInitial'
p53
g52
sS'Uin'
p54
I3413407412
sS'AppAccountFlag'
p55
I0
sS'VerifyFlag'
p56
I0
sS'Province'
p57
g43
sS'KeyWord'
p58
g43
sS'RemarkName'
p59
g52
sS'PYInitial'
p60
g52
sS'ChatRoomId'
p61
I0
sS'HideInputBarFlag'
p62
I0
sVHeadImgFlag
p63
I1
sS'EncryChatRoomId'
p64
g43
sS'AttrStatus'
p65
I0
sS'SnsFlag'
p66
I0
sS'MemberCount'
p67
I0
sVWebWxPluginSwitch
p68
I0
sS'Alias'
p69
g43
sS'Signature'
p70
g52
sS'ContactFlag'
p71
I0
sS'NickName'
p72
VAran
p73
sS'RemarkPYQuanPin'
p74
g52
sS'HeadImgUrl'
p75
V/cgi-bin/mmwebwx-bin/webwxgeticon?seq=1663275390&username=@2d32ce0953fd4e7eb76e24e2c6b8f83e8fe12e959ee932525b172072425a7e6c&skey=@crypt_bda10ae4_d019d890a981cbac0d9ee50e7f05153d
p76
sS'Sex'
p77
I0
sS'StarFriend'
p78
I0
sS'Statues'
p79
I0
stp80
Rp81
I1
bag34
(g38
g39
(dp82
VUserName
p83
V@4859b1e61bc7c2b9901084563034cd1411e4bae452db853ba6637d7b462b4508
p84
sVCity
p85
g52
sVSnsFlag
p86
I17
sVDisplayName
p87
g52
sVUniFriend
p88
I0
sVMemberCount
p89
I0
sVOwnerUin
p90
I0
sVMemberList
p91
g50
sVAlias
p92
VYihoney_
p93
sVPYQuanPin
p94
Vspanclassemojiemoji1f33espancaoyispanclassemojiemoji1f33espan
p95
sVSignature
p96
V\u6709\u82b1\u6709\u6708\u6709\u697c\u53f0 \u4e0d\u98ce\u6d41\u5904\u4e5f\u98ce\u6d41
p97
sVRemarkPYInitial
p98
g52
sVContactFlag
p99
I3
sVUin
p100
I0
sVNickName
p101
V\U0001f33e\u8349\u4e59\U0001f33e
p102
sVAppAccountFlag
p103
I0
sVVerifyFlag
p104
I0
sVRemarkPYQuanPin
p105
g52
sVHeadImgUrl
p106
V/cgi-bin/mmwebwx-bin/webwxgeticon?seq=603850966&username=@4859b1e61bc7c2b9901084563034cd1411e4bae452db853ba6637d7b462b4508&skey=@crypt_bda10ae4_d019d890a981cbac0d9ee50e7f05153d
p107
sVKeyWord
p108
g52
sVProvince
p109
g52
sVPYInitial
p110
VSPANCLASSEMOJIEMOJI1F33ESPANCYSPANCLASSEMOJIEMOJI1F33ESPAN
p111
sVRemarkName
p112
g52
sVIsOwner
p113
I0
sVSex
p114
I2
sVStarFriend
p115
I0
sVHideInputBarFlag
p116
I0
sVChatRoomId
p117
I0
sVEncryChatRoomId
p118
g52
sVAttrStatus
p119
I33785893
sVStatues
p120
I0
stp121
Rp122
I1
bag34
(g38
g39
(dp123
VUserName
p124
V@a7638fed62dc631c1111b7c68bba68fe407c0d894858121829c95ccc166cd7df
p125
sVCity
p126
g52
sVSnsFlag
p127
I17
sVDisplayName
p128
g52
sVUniFriend
p129
I0
sVMemberCount
p130
I0
sVOwnerUin
p131
I0
sVMemberList
p132
g50
sVAlias
p133
VJava2048
p134
sVPYQuanPin
p135
Vxiaodeqiu
p136
sVSignature
p137
V\u5b66\u800c\u4e0d\u601d\u5219\u7f54\uff0c\u54c8\u54c8
p138
sVRemarkPYInitial
p139
g52
sVContactFlag
p140
I3
sVUin
p141
I0
sVNickName
p142
V\u5c0f\u5730\u7403
p143
sVAppAccountFlag
p144
I0
sVVerifyFlag
p145
I0
sVRemarkPYQuanPin
p146
g52
sVHeadImgUrl
p147
V/cgi-bin/mmwebwx-bin/webwxgeticon?seq=603851078&username=@a7638fed62dc631c1111b7c68bba68fe407c0d894858121829c95ccc166cd7df&skey=@crypt_bda10ae4_d019d890a981cbac0d9ee50e7f05153d
p148
sVKeyWord
p149
g52
sVProvince
p150
VFrankfurt
p151
sVPYInitial
p152
VXDQ
p153
sVRemarkName
p154
g52
sVIsOwner
p155
I0
sVSex
p156
I1
sVStarFriend
p157
I0
sVHideInputBarFlag
p158
I0
sVChatRoomId
p159
I0
sVEncryChatRoomId
p160
g52
sVAttrStatus
p161
I33789989
sVStatues
p162
I0
stp163
Rp164
I1
bag34
(g38
g39
(dp165
VUserName
p166
V@fc7153a3d982b363a46380f1a6d07810
p167
sVCity
p168
V\u8475\u9752\u533a
p169
sVSnsFlag
p170
I49
sVDisplayName
p171
g52
sVUniFriend
p172
I0
sVMemberCount
p173
I0
sVOwnerUin
p174
I0
sVMemberList
p175
g50
sVAlias
p176
g52
sVPYQuanPin
p177
Vspanclassemojiemoji1f335spanyezhier
p178
sVSignature
p179
V\u65f6\u5149\u6f2b\u957f\uff0c\u6709\u6211\u522b\u614c\u3002<span class="emoji emoji1f618"></span>
p180
sVRemarkPYInitial
p181
g52
sVContactFlag
p182
I3
sVUin
p183
I0
sVNickName
p184
V\U0001f335\u6930\u6c41\u513f
p185
sVAppAccountFlag
p186
I0
sVVerifyFlag
p187
I0
sVRemarkPYQuanPin
p188
g52
sVHeadImgUrl
p189
V/cgi-bin/mmwebwx-bin/webwxgeticon?seq=603850968&username=@fc7153a3d982b363a46380f1a6d07810&skey=@crypt_bda10ae4_d019d890a981cbac0d9ee50e7f05153d
p190
sVKeyWord
p191
Vyev
p192
sVProvince
p193
V\u9999\u6e2f
p194
sVPYInitial
p195
VSPANCLASSEMOJIEMOJI1F335SPANYZE
p196
sVRemarkName
p197
g52
sVIsOwner
p198
I0
sVSex
p199
I2
sVStarFriend
p200
I0
sVHideInputBarFlag
p201
I0
sVChatRoomId
p202
I0
sVEncryChatRoomId
p203
g52
sVAttrStatus
p204
I67623
sVStatues
p205
I0
stp206
Rp207
I1
bag34
(g38
g39
(dp208
VUserName
p209
V@664610839c3851e9f7a9420dba5e0e25ce698fd4a0de3f50fdd7a332029bdf54
p210
sVCity
p211
V\u8d63\u5dde
p212
sVSnsFlag
p213
I49
sVDisplayName
p214
g52
sVUniFriend
p215
I0
sVMemberCount
p216
I0
sVOwnerUin
p217
I0
sVMemberList
p218
g50
sVAlias
p219
VElain1025
p220
sVPYQuanPin
p221
Vxiaoliao15807504515
p222
sVSignature
p223
V\u4e0b\u8f88\u5b50\u6295\u80ce\u505a\u4e2a\u7537\u4eba\uff0c\u5a36\u4e2a\u50cf\u6211\u8fd9\u6837\u7684\u5973\u4eba\U0001f64815807504515
p224
sVRemarkPYInitial
p225
VELAINE
p226
sVContactFlag
p227
I3
sVUin
p228
I0
sVNickName
p229
V\u5c0f\u5ed6 15807504515
p230
sVAppAccountFlag
p231
I0
sVVerifyFlag
p232
I0
sVRemarkPYQuanPin
p233
VElaine
p234
sVHeadImgUrl
p235
V/cgi-bin/mmwebwx-bin/webwxgeticon?seq=603850127&username=@664610839c3851e9f7a9420dba5e0e25ce698fd4a0de3f50fdd7a332029bdf54&skey=@crypt_bda10ae4_d019d890a981cbac0d9ee50e7f05153d
p236
sVKeyWord
p237
g52
sVProvince
p238
V\u6c5f\u897f
p239
sVPYInitial
p240
VXL15807504515
p241
sVRemarkName
p242
VElaine
p243
sVIsOwner
p244
I0
sVSex
p245
I2
sVStarFriend
p246
I0
sVHideInputBarFlag
p247
I0
sVChatRoomId
p248
I0
sVEncryChatRoomId
p249
g52
sVAttrStatus
p250
I69669
sVStatues
p251
I0
stp252
Rp253
I1
bag34
(g38
g39
(dp254
VUserName
p255
V@3942e021ec893892242547a5a157fcccbab0788f7db8f31c8aa192633e298152
p256
sVCity
p257
V\u671d\u9633
p258
sVSnsFlag
p259
I17
sVDisplayName
p260
g52
sVUniFriend
p261
I0
sVMemberCount
p262
I0
sVOwnerUin
p263
I0
sVMemberList
p264
g50
sVAlias
p265
Vmy_cheese92
p266
sVPYQuanPin
p267
VKerry
p268
sVSignature
p269
V\u4ee5\u68a6\u4e3a\u9a6c\uff0c\u4e0d\u8d1f\u97f6\u534e
p270
sVRemarkPYInitial
p271
g52
sVContactFlag
p272
I3
sVUin
p273
I0
sVNickName
p274
VKerry
p275
sVAppAccountFlag
p276
I0
sVVerifyFlag
p277
I0
sVRemarkPYQuanPin
p278
g52
sVHeadImgUrl
p279
V/cgi-bin/mmwebwx-bin/webwxgeticon?seq=603850763&username=@3942e021ec893892242547a5a157fcccbab0788f7db8f31c8aa192633e298152&skey=@crypt_bda10ae4_d019d890a981cbac0d9ee50e7f05153d
p280
sVKeyWord
p281
g52
sVProvince
p282
V\u5317\u4eac
p283
sVPYInitial
p284
VKERRY
p285
sVRemarkName
p286
g52
sVIsOwner
p287
I0
sVSex
p288
I2
sVStarFriend
p289
I0
sVHideInputBarFlag
p290
I0
sVChatRoomId
p291
I0
sVEncryChatRoomId
p292
g52
sVAttrStatus
p293
I33674359
sVStatues
p294
I0
stp295
Rp296
I1
bag34
(g38
g39
(dp297
VUserName
p298
V@8beb882e90aa7e5eb904f2b5f7ab0f411b3f85e63c00bd104bbab5589ee4bd01
p299
sVCity
p300
V\u4e1c\u57ce
p301
sVSnsFlag
p302
I49
sVDisplayName
p303
g52
sVUniFriend
p304
I0
sVMemberCount
p305
I0
sVOwnerUin
p306
I0
sVMemberList
p307
g50
sVAlias
p308
VYe-zone
p309
sVPYQuanPin
p310
VYat3s
p311
sVSignature
p312
V\u4e00\u53ea\u7231\u73a9\u7684\u7a0b\u5e8f\u6c6a<span class="emoji emoji1f436"></span>
p313
sVRemarkPYInitial
p314
g52
sVContactFlag
p315
I3
sVUin
p316
I0
sVNickName
p317
VYat3s
p318
sVAppAccountFlag
p319
I0
sVVerifyFlag
p320
I0
sVRemarkPYQuanPin
p321
g52
sVHeadImgUrl
p322
V/cgi-bin/mmwebwx-bin/webwxgeticon?seq=603850332&username=@8beb882e90aa7e5eb904f2b5f7ab0f411b3f85e63c00bd104bbab5589ee4bd01&skey=@crypt_bda10ae4_d019d890a981cbac0d9ee50e7f05153d
p323
sVKeyWord
p324
g52
sVProvince
p325
V\u5317\u4eac
p326
sVPYInitial
p327
VYAT3S
p328
sVRemarkName
p329
g52
sVIsOwner
p330
I0
sVSex
p331
I1
sVStarFriend
p332
I0
sVHideInputBarFlag
p333
I0
sVChatRoomId
p334
I0
sVEncryChatRoomId
p335
g52
sVAttrStatus
p336
I37851239
sVStatues
p337
I0
stp338
Rp339
I1
batp340
Rp341
I1
bsS'chatroomList'
p342
g34
(g35
g36
(lp343
g34
(citchat.storage.templates
Chatroom
p344
g39
(dp345
VUserName
p346
V@@03d4e88d965c65cb1efce967d3f058e582b436df204abce3fe821e2c25841ea2
p347
sVCity
p348
g52
sVDisplayName
p349
g52
sVUniFriend
p350
I0
sS'Self'
p351
g34
(g38
g39
(dp352
g41
g31
sg42
g43
sg44
g43
sg45
I0
sg46
I0
sg47
g34
(g35
g36
(lp353
tp354
Rp355
I1
bsg51
g52
sg53
g52
sg54
I3413407412
sg55
I0
sg56
I0
sg57
g43
sg58
g43
sg59
g52
sg60
g52
sg61
I0
sg62
I0
sg63
I1
sg64
g43
sg65
I0
sg66
I0
sg67
I0
sg68
I0
sg69
g43
sg70
g52
sg71
I0
sg72
g73
sg74
g52
sg75
g76
sg77
I0
sg78
I0
sg79
I0
stp356
Rp357
I1
bsVMemberList
p358
g34
(g35
g36
(lp359
tp360
Rp361
I1
bsVPYQuanPin
p362
g52
sVRemarkPYInitial
p363
g52
sVSex
p364
I0
sVAppAccountFlag
p365
I0
sVVerifyFlag
p366
I0
sVProvince
p367
g52
sVKeyWord
p368
g52
sVRemarkName
p369
g52
sVPYInitial
p370
g52
sVIsOwner
p371
I0
sVChatRoomId
p372
I0
sVHideInputBarFlag
p373
I0
sVEncryChatRoomId
p374
g52
sVAttrStatus
p375
I0
sVSnsFlag
p376
I0
sVMemberCount
p377
I3
sVOwnerUin
p378
I0
sVAlias
p379
g52
sS'IsAdmin'
p380
NsVSignature
p381
g52
sVContactFlag
p382
I0
sVNickName
p383
VYat3s,echo\u5c0f\u840c,Aran
p384
sVRemarkPYQuanPin
p385
g52
sVHeadImgUrl
p386
V/cgi-bin/mmwebwx-bin/webwxgetheadimg?seq=0&username=@@03d4e88d965c65cb1efce967d3f058e582b436df204abce3fe821e2c25841ea2&skey=@crypt_bda10ae4_d019d890a981cbac0d9ee50e7f05153d
p387
sVUin
p388
I0
sVStarFriend
p389
I0
sVStatues
p390
I1
stp391
Rp392
I1
bag34
(g344
g39
(dp393
VUserName
p394
V@@3378a6a9046b59e1725fd662e95453f83cf38030fdedd9ef29f08b51bcb8ae5c
p395
sVCity
p396
g52
sVDisplayName
p397
g52
sVUniFriend
p398
I0
sg351
g34
(g38
g39
(dp399
g41
g31
sg42
g43
sg44
g43
sg45
I0
sg46
I0
sg47
g34
(g35
g36
(lp400
tp401
Rp402
I1
bsg51
g52
sg53
g52
sg54
I3413407412
sg55
I0
sg56
I0
sg57
g43
sg58
g43
sg59
g52
sg60
g52
sg61
I0
sg62
I0
sg63
I1
sg64
g43
sg65
I0
sg66
I0
sg67
I0
sg68
I0
sg69
g43
sg70
g52
sg71
I0
sg72
g73
sg74
g52
sg75
g76
sg77
I0
sg78
I0
sg79
I0
stp403
Rp404
I1
bsVMemberList
p405
g34
(g35
g36
(lp406
tp407
Rp408
I1
bsVPYQuanPin
p409
g52
sVRemarkPYInitial
p410
g52
sVSex
p411
I0
sVAppAccountFlag
p412
I0
sVVerifyFlag
p413
I0
sVProvince
p414
g52
sVKeyWord
p415
g52
sVRemarkName
p416
g52
sVPYInitial
p417
g52
sVIsOwner
p418
I0
sVChatRoomId
p419
I0
sVHideInputBarFlag
p420
I0
sVEncryChatRoomId
p421
g52
sVAttrStatus
p422
I0
sVSnsFlag
p423
I0
sVMemberCount
p424
I3
sVOwnerUin
p425
I0
sVAlias
p426
g52
sg380
NsVSignature
p427
g52
sVContactFlag
p428
I0
sVNickName
p429
VTsui.,Yat3s,Aran
p430
sVRemarkPYQuanPin
p431
g52
sVHeadImgUrl
p432
V/cgi-bin/mmwebwx-bin/webwxgetheadimg?seq=0&username=@@3378a6a9046b59e1725fd662e95453f83cf38030fdedd9ef29f08b51bcb8ae5c&skey=@crypt_bda10ae4_d019d890a981cbac0d9ee50e7f05153d
p433
sVUin
p434
I0
sVStarFriend
p435
I0
sVStatues
p436
I1
stp437
Rp438
I1
batp439
Rp440
I1
bsS'nickName'
p441
g73
sS'mpList'
p442
g34
(g35
g36
(lp443
g34
(citchat.storage.templates
MassivePlatform
p444
g39
(dp445
VUserName
p446
V@d9d16a9280ff630835c511a04f7ee330
p447
sVCity
p448
V\u5e7f\u5dde
p449
sVSnsFlag
p450
I0
sVDisplayName
p451
g52
sVUniFriend
p452
I0
sVMemberCount
p453
I0
sVOwnerUin
p454
I0
sVMemberList
p455
g50
sVAlias
p456
g52
sVPYQuanPin
p457
Vgongzhongpingtaianquanzhushou
p458
sVSignature
p459
V\u63d0\u4f9b\u5fae\u4fe1\u516c\u4f17\u53f7\u767b\u5f55\u548c\u7fa4\u53d1\u7b49\u5b89\u5168\u64cd\u4f5c\uff0c\u5728\u624b\u673a\u4e0a\u67e5\u6536\u6d88\u606f\u3001\u8bc4\u8bba\u3001\u8d5e\u8d4f\uff0c\u65b0\u5efa\u7fa4\u53d1\u548c\u67e5\u770b\u7fa4\u53d1\u5386\u53f2\u3002
p460
sVRemarkPYInitial
p461
g52
sVContactFlag
p462
I3
sVUin
p463
I0
sVNickName
p464
V\u516c\u4f17\u5e73\u53f0\u5b89\u5168\u52a9\u624b
p465
sVAppAccountFlag
p466
I0
sVVerifyFlag
p467
I24
sVRemarkPYQuanPin
p468
g52
sVHeadImgUrl
p469
V/cgi-bin/mmwebwx-bin/webwxgeticon?seq=600880067&username=@d9d16a9280ff630835c511a04f7ee330&skey=@crypt_bda10ae4_d019d890a981cbac0d9ee50e7f05153d
p470
sVKeyWord
p471
Vmph
p472
sVProvince
p473
V\u5e7f\u4e1c
p474
sVPYInitial
p475
VGZPTAQZS
p476
sVRemarkName
p477
g52
sVIsOwner
p478
I0
sVSex
p479
I0
sVStarFriend
p480
I0
sVHideInputBarFlag
p481
I0
sVChatRoomId
p482
I0
sVEncryChatRoomId
p483
g52
sVAttrStatus
p484
I98459
sVStatues
p485
I0
stp486
Rp487
I1
bag34
(g444
g39
(dp488
VUserName
p489
V@5c6b7ca439dff7f721129be5e3e89dea
p490
sVCity
p491
V\u897f\u57ce
p492
sVSnsFlag
p493
I0
sVDisplayName
p494
g52
sVUniFriend
p495
I0
sVMemberCount
p496
I0
sVOwnerUin
p497
I0
sVMemberList
p498
g50
sVAlias
p499
VChinaUnicom800010010
p500
sVPYQuanPin
p501
Vzhongguoliantong
p502
sVSignature
p503
V\u4e2d\u56fd\u8054\u901a\u5fae\u4fe1\u8425\u4e1a\u5385\uff0c\u4fbf\u6377\u968f\u8eab\uff0c\u67e5\u8be2\u529e\u7406\u4e00\u952e\u641e\u5b9a\uff0c\u8fd8\u6709\u5ba2\u670dMM\u8d34\u5fc3\u89e3\u5fe7\uff0c\u66f4\u591a\u8d44\u8baf\u63a8\u8350\u4e0e\u60a8\u5206\u4eab\u3002\u656c\u8bf7\u5149\u4e34\uff0c\u671f\u5f85\u60ca\u559c\uff01
p504
sVRemarkPYInitial
p505
g52
sVContactFlag
p506
I3
sVUin
p507
I0
sVNickName
p508
V\u4e2d\u56fd\u8054\u901a
p509
sVAppAccountFlag
p510
I0
sVVerifyFlag
p511
I24
sVRemarkPYQuanPin
p512
g52
sVHeadImgUrl
p513
V/cgi-bin/mmwebwx-bin/webwxgeticon?seq=603850307&username=@5c6b7ca439dff7f721129be5e3e89dea&skey=@crypt_bda10ae4_d019d890a981cbac0d9ee50e7f05153d
p514
sVKeyWord
p515
Vgh_
p516
sVProvince
p517
V\u5317\u4eac
p518
sVPYInitial
p519
VZGLT
p520
sVRemarkName
p521
g52
sVIsOwner
p522
I0
sVSex
p523
I0
sVStarFriend
p524
I0
sVHideInputBarFlag
p525
I0
sVChatRoomId
p526
I0
sVEncryChatRoomId
p527
g52
sVAttrStatus
p528
I0
sVStatues
p529
I0
stp530
Rp531
I1
batp532
Rp533
I1
bssS'loginInfo'
p534
(dp535
S'SyncKey'
p536
(dp537
VCount
p538
I4
sVList
p539
(lp540
(dp541
VVal
p542
I603851406
sVKey
p543
I1
sa(dp544
VVal
p545
I603851724
sVKey
p546
I2
sa(dp547
VVal
p548
I603851718
sVKey
p549
I3
sa(dp550
VVal
p551
I1493108933
sVKey
p552
I1000
sassS'syncUrl'
p553
S'https://webpush.wx2.qq.com/cgi-bin/mmwebwx-bin'
p554
sS'skey'
p555
V@crypt_bda10ae4_d019d890a981cbac0d9ee50e7f05153d
p556
sS'wxuin'
p557
V3413407412
p558
sS'synckey'
p559
S'1_603851406|2_603851724|3_603851718|1000_1493108933'
p560
sS'url'
p561
Vhttps://wx2.qq.com/cgi-bin/mmwebwx-bin
p562
sS'pass_ticket'
p563
VPZA3tjbLEu7uaaSFrSQ2oQRFYMo3TB%2F2N5kiKiLsIweRoMIOTMCGgUQKXgiwcuvH
p564
sS'wxsid'
p565
VcLA0OkYTGhgmcLZ+
p566
sS'InviteStartCount'
p567
I40
sS'deviceid'
p568
S'e032958900899289'
p569
sS'fileUrl'
p570
S'https://file.wx2.qq.com/cgi-bin/mmwebwx-bin'
p571
sS'BaseRequest'
p572
(dp573
g54
g558
sS'Skey'
p574
g556
sS'DeviceID'
p575
g564
sS'Sid'
p576
g566
ssS'User'
p577
g34
(g38
g39
(dp578
g41
g31
sg42
g43
sg44
g43
sg45
I0
sg47
g50
sg51
g52
sg53
g52
sg77
I0
sg55
I0
sg56
I0
sg57
g43
sg58
g43
sg59
g52
sg60
g52
sg61
I0
sg62
I0
sg63
I1
sg64
g43
sg65
I0
sg68
I0
sg66
I0
sg67
I0
sg46
I0
sg69
g43
sg70
g52
sg71
I0
sg72
g73
sg74
g52
sg75
g76
sg54
I3413407412
sg78
I0
sg79
I0
stp579
Rp580
I1
bss.