(dp0
S'cookies'
p1
(dp2
S'wxloadtime'
p3
S'1493467136'
p4
sS'webwx_data_ticket'
p5
S'gSdZZB1G5HvFvSD9sEHWS5JM'
p6
sS'wxuin'
p7
S'3413407412'
p8
sS'login_frequency'
p9
S'2'
p10
sS'MM_WX_NOTIFY_STATE'
p11
S'1'
p12
sS'MM_WX_SOUND_STATE'
p13
g12
sS'webwx_auth_ticket'
p14
S'CIsBELTt3rkDGoABz1B9Eu9w0+faOm1D8GSGvOBFmEPmcFYkh6UNfVEmRNmFOb3logmcgrIDBqK+TxThDpb7/IgPm3o2b6FBHswdgc/ivWsrabBfV68kB0fCk67NA6Zc30t/ts5Gj57SJePmHQzSwEDplkUawzwoJb8aJcLvzhQftLnqHqWa04yK2nI='
p15
sS'last_wxuin'
p16
S'3413407412'
p17
sS'webwxuvid'
p18
S'0ad038a387f4269064e4a4417f4f53ec4ba09bc37f4701209a4da3a50b6aec896a69993b6d7c2be70829c938fc402626'
p19
sS'wxpluginkey'
p20
S'1493399415'
p21
sS'wxsid'
p22
S'Mwhx7JsCetOLERB7'
p23
sS'mm_lang'
p24
S'zh_CN'
p25
ssS'version'
p26
S'1.3.5'
p27
sS'storage'
p28
(dp29
S'userName'
p30
V@4f69fe68523c44c34e31ebbdc359ebba9c9eba231d34876db69c448b463a1cb7
p31
sS'lastInputUserName'
p32
NsS'memberList'
p33
ccopy_reg
_reconstructor
p34
(cchatcore.storage.templates
ContactList
p35
c__builtin__
list
p36
(lp37
g34
(cchatcore.storage.templates
User
p38
c__builtin__
dict
p39
(dp40
S'UserName'
p41
g31
sS'City'
p42
S''
p43
sS'DisplayName'
p44
g43
sS'UniFriend'
p45
I0
sS'OwnerUin'
p46
I0
sS'MemberList'
p47
g34
(g35
g36
(lp48
tp49
Rp50
I1
bsS'PYQuanPin'
p51
V
p52
sS'RemarkPYInitial'
p53
g52
sS'Uin'
p54
I3413407412
sS'AppAccountFlag'
p55
I0
sS'VerifyFlag'
p56
I0
sS'Province'
p57
g43
sS'KeyWord'
p58
g43
sS'RemarkName'
p59
g52
sS'PYInitial'
p60
g52
sS'ChatRoomId'
p61
I0
sS'HideInputBarFlag'
p62
I0
sVHeadImgFlag
p63
I1
sS'EncryChatRoomId'
p64
g43
sS'AttrStatus'
p65
I0
sS'SnsFlag'
p66
I0
sS'MemberCount'
p67
I0
sVWebWxPluginSwitch
p68
I0
sS'Alias'
p69
g43
sS'Signature'
p70
g52
sS'ContactFlag'
p71
I0
sS'NickName'
p72
VAran
p73
sS'RemarkPYQuanPin'
p74
g52
sS'HeadImgUrl'
p75
V/cgi-bin/mmwebwx-bin/webwxgeticon?seq=1677651994&username=@4f69fe68523c44c34e31ebbdc359ebba9c9eba231d34876db69c448b463a1cb7&skey=@crypt_bda10ae4_7912f22414291f18442f1ca0d282635b
p76
sS'Sex'
p77
I0
sS'StarFriend'
p78
I0
sS'Statues'
p79
I0
stp80
Rp81
I1
bag34
(g38
g39
(dp82
VUserName
p83
V@5a000f7d9cf4940790d3c8819bad0b01749f109f8e3cd2e2170025dd38ea0b51
p84
sVCity
p85
V\u671d\u9633
p86
sVSnsFlag
p87
I17
sVDisplayName
p88
g52
sVUniFriend
p89
I0
sVMemberCount
p90
I0
sVOwnerUin
p91
I0
sVMemberList
p92
g50
sVAlias
p93
g52
sVPYQuanPin
p94
VKerry
p95
sVSignature
p96
V\u4ee5\u68a6\u4e3a\u9a6c\uff0c\u4e0d\u8d1f\u97f6\u534e
p97
sVRemarkPYInitial
p98
g52
sVContactFlag
p99
I3
sVUin
p100
I0
sVNickName
p101
VKerry
p102
sVAppAccountFlag
p103
I0
sVVerifyFlag
p104
I0
sVRemarkPYQuanPin
p105
g52
sVHeadImgUrl
p106
V/cgi-bin/mmwebwx-bin/webwxgeticon?seq=603850763&username=@5a000f7d9cf4940790d3c8819bad0b01749f109f8e3cd2e2170025dd38ea0b51&skey=@crypt_bda10ae4_7912f22414291f18442f1ca0d282635b
p107
sVKeyWord
p108
g52
sVProvince
p109
V\u5317\u4eac
p110
sVPYInitial
p111
VKERRY
p112
sVRemarkName
p113
g52
sVIsOwner
p114
I0
sVSex
p115
I2
sVStarFriend
p116
I0
sVHideInputBarFlag
p117
I0
sVChatRoomId
p118
I0
sVEncryChatRoomId
p119
g52
sVAttrStatus
p120
I33674359
sVStatues
p121
I0
stp122
Rp123
I1
bag34
(g38
g39
(dp124
VUserName
p125
V@896d534ca9296ca05134695252cbd825fec4702ec033210db357735c1263bd0d
p126
sVCity
p127
V\u4e1c\u57ce
p128
sVSnsFlag
p129
I49
sVDisplayName
p130
g52
sVUniFriend
p131
I0
sVMemberCount
p132
I0
sVOwnerUin
p133
I0
sVMemberList
p134
g50
sVAlias
p135
g52
sVPYQuanPin
p136
VYat3s
p137
sVSignature
p138
V\u4e00\u53ea\u7231\u73a9\u7684\u7a0b\u5e8f\u6c6a<span class="emoji emoji1f436"></span>
p139
sVRemarkPYInitial
p140
g52
sVContactFlag
p141
I3
sVUin
p142
I0
sVNickName
p143
VYat3s
p144
sVAppAccountFlag
p145
I0
sVVerifyFlag
p146
I0
sVRemarkPYQuanPin
p147
g52
sVHeadImgUrl
p148
V/cgi-bin/mmwebwx-bin/webwxgeticon?seq=603850332&username=@896d534ca9296ca05134695252cbd825fec4702ec033210db357735c1263bd0d&skey=@crypt_bda10ae4_7912f22414291f18442f1ca0d282635b
p149
sVKeyWord
p150
g52
sVProvince
p151
V\u5317\u4eac
p152
sVPYInitial
p153
VYAT3S
p154
sVRemarkName
p155
g52
sVIsOwner
p156
I0
sVSex
p157
I1
sVStarFriend
p158
I0
sVHideInputBarFlag
p159
I0
sVChatRoomId
p160
I0
sVEncryChatRoomId
p161
g52
sVAttrStatus
p162
I37851239
sVStatues
p163
I0
stp164
Rp165
I1
bag34
(g38
g39
(dp166
VUserName
p167
V@017daabfeaa2d0b202e7b030bfcd4a56086ec5f8bb88979f54f35eadca2ed5ec
p168
sVCity
p169
V\u8d63\u5dde
p170
sVSnsFlag
p171
I49
sVDisplayName
p172
g52
sVUniFriend
p173
I0
sVMemberCount
p174
I0
sVOwnerUin
p175
I0
sVMemberList
p176
g50
sVAlias
p177
g52
sVPYQuanPin
p178
Vxiaoliao15807504515
p179
sVSignature
p180
V\u4e0b\u8f88\u5b50\u6295\u80ce\u505a\u4e2a\u7537\u4eba\uff0c\u5a36\u4e2a\u50cf\u6211\u8fd9\u6837\u7684\u5973\u4eba\U0001f64815807504515
p181
sVRemarkPYInitial
p182
VELAINE
p183
sVContactFlag
p184
I3
sVUin
p185
I0
sVNickName
p186
V\u5c0f\u5ed6 15807504515
p187
sVAppAccountFlag
p188
I0
sVVerifyFlag
p189
I0
sVRemarkPYQuanPin
p190
VElaine
p191
sVHeadImgUrl
p192
V/cgi-bin/mmwebwx-bin/webwxgeticon?seq=603850127&username=@017daabfeaa2d0b202e7b030bfcd4a56086ec5f8bb88979f54f35eadca2ed5ec&skey=@crypt_bda10ae4_7912f22414291f18442f1ca0d282635b
p193
sVKeyWord
p194
g52
sVProvince
p195
V\u6c5f\u897f
p196
sVPYInitial
p197
VXL15807504515
p198
sVRemarkName
p199
VElaine
p200
sVIsOwner
p201
I0
sVSex
p202
I2
sVStarFriend
p203
I0
sVHideInputBarFlag
p204
I0
sVChatRoomId
p205
I0
sVEncryChatRoomId
p206
g52
sVAttrStatus
p207
I69669
sVStatues
p208
I0
stp209
Rp210
I1
bag34
(g38
g39
(dp211
VUserName
p212
V@af9c697e0475466f5d65fc8a4375bb73e46629eb64021e1de95ef983c813951d
p213
sVCity
p214
g52
sVSnsFlag
p215
I17
sVDisplayName
p216
g52
sVUniFriend
p217
I0
sVMemberCount
p218
I0
sVOwnerUin
p219
I0
sVMemberList
p220
g50
sVAlias
p221
g52
sVPYQuanPin
p222
Vspanclassemojiemoji1f33espancaoyispanclassemojiemoji1f33espan
p223
sVSignature
p224
V\u6709\u82b1\u6709\u6708\u6709\u697c\u53f0 \u4e0d\u98ce\u6d41\u5904\u4e5f\u98ce\u6d41
p225
sVRemarkPYInitial
p226
g52
sVContactFlag
p227
I3
sVUin
p228
I0
sVNickName
p229
V\U0001f33e\u8349\u4e59\U0001f33e
p230
sVAppAccountFlag
p231
I0
sVVerifyFlag
p232
I0
sVRemarkPYQuanPin
p233
g52
sVHeadImgUrl
p234
V/cgi-bin/mmwebwx-bin/webwxgeticon?seq=603850966&username=@af9c697e0475466f5d65fc8a4375bb73e46629eb64021e1de95ef983c813951d&skey=@crypt_bda10ae4_7912f22414291f18442f1ca0d282635b
p235
sVKeyWord
p236
g52
sVProvince
p237
g52
sVPYInitial
p238
VSPANCLASSEMOJIEMOJI1F33ESPANCYSPANCLASSEMOJIEMOJI1F33ESPAN
p239
sVRemarkName
p240
g52
sVIsOwner
p241
I0
sVSex
p242
I2
sVStarFriend
p243
I0
sVHideInputBarFlag
p244
I0
sVChatRoomId
p245
I0
sVEncryChatRoomId
p246
g52
sVAttrStatus
p247
I33785893
sVStatues
p248
I0
stp249
Rp250
I1
bag34
(g38
g39
(dp251
VUserName
p252
V@a8b4f83c8374519b0f364510b85e65eb
p253
sVCity
p254
V\u8475\u9752\u533a
p255
sVSnsFlag
p256
I49
sVDisplayName
p257
g52
sVUniFriend
p258
I0
sVMemberCount
p259
I0
sVOwnerUin
p260
I0
sVMemberList
p261
g50
sVAlias
p262
g52
sVPYQuanPin
p263
Vspanclassemojiemoji1f335spanyezhier
p264
sVSignature
p265
V\u65f6\u5149\u6f2b\u957f\uff0c\u6709\u6211\u522b\u614c\u3002<span class="emoji emoji1f618"></span>
p266
sVRemarkPYInitial
p267
g52
sVContactFlag
p268
I3
sVUin
p269
I0
sVNickName
p270
V\U0001f335\u6930\u6c41\u513f
p271
sVAppAccountFlag
p272
I0
sVVerifyFlag
p273
I0
sVRemarkPYQuanPin
p274
g52
sVHeadImgUrl
p275
V/cgi-bin/mmwebwx-bin/webwxgeticon?seq=603850968&username=@a8b4f83c8374519b0f364510b85e65eb&skey=@crypt_bda10ae4_7912f22414291f18442f1ca0d282635b
p276
sVKeyWord
p277
Vyev
p278
sVProvince
p279
V\u9999\u6e2f
p280
sVPYInitial
p281
VSPANCLASSEMOJIEMOJI1F335SPANYZE
p282
sVRemarkName
p283
g52
sVIsOwner
p284
I0
sVSex
p285
I2
sVStarFriend
p286
I0
sVHideInputBarFlag
p287
I0
sVChatRoomId
p288
I0
sVEncryChatRoomId
p289
g52
sVAttrStatus
p290
I67623
sVStatues
p291
I0
stp292
Rp293
I1
bag34
(g38
g39
(dp294
VUserName
p295
V@78cb6c780f91239d21a4891213b397be0940ab675929bd4af6628d493c78f2d3
p296
sVCity
p297
g52
sVSnsFlag
p298
I17
sVDisplayName
p299
g52
sVUniFriend
p300
I0
sVMemberCount
p301
I0
sVOwnerUin
p302
I0
sVMemberList
p303
g50
sVAlias
p304
g52
sVPYQuanPin
p305
Vxiaodeqiu
p306
sVSignature
p307
V\u5b66\u800c\u4e0d\u601d\u5219\u7f54\uff0c\u54c8\u54c8
p308
sVRemarkPYInitial
p309
g52
sVContactFlag
p310
I3
sVUin
p311
I0
sVNickName
p312
V\u5c0f\u5730\u7403
p313
sVAppAccountFlag
p314
I0
sVVerifyFlag
p315
I0
sVRemarkPYQuanPin
p316
g52
sVHeadImgUrl
p317
V/cgi-bin/mmwebwx-bin/webwxgeticon?seq=603851078&username=@78cb6c780f91239d21a4891213b397be0940ab675929bd4af6628d493c78f2d3&skey=@crypt_bda10ae4_7912f22414291f18442f1ca0d282635b
p318
sVKeyWord
p319
g52
sVProvince
p320
VFrankfurt
p321
sVPYInitial
p322
VXDQ
p323
sVRemarkName
p324
g52
sVIsOwner
p325
I0
sVSex
p326
I1
sVStarFriend
p327
I0
sVHideInputBarFlag
p328
I0
sVChatRoomId
p329
I0
sVEncryChatRoomId
p330
g52
sVAttrStatus
p331
I33789989
sVStatues
p332
I0
stp333
Rp334
I1
bag34
(g38
g39
(dp335
VUserName
p336
V@b9063f7425b77ab04729a61ca083d96dd1398f6d44799d4c536328cf29436093
p337
sVCity
p338
g52
sVSnsFlag
p339
I49
sVDisplayName
p340
g52
sVUniFriend
p341
I0
sVMemberCount
p342
I0
sVOwnerUin
p343
I0
sVMemberList
p344
g50
sVAlias
p345
g52
sVPYQuanPin
p346
Vechoxiaomeng
p347
sVSignature
p348
V\u65e2\u7136\u7434\u745f\u8d77
p349
sVRemarkPYInitial
p350
g52
sVContactFlag
p351
I3
sVUin
p352
I0
sVNickName
p353
Vecho\u5c0f\u840c
p354
sVAppAccountFlag
p355
I0
sVVerifyFlag
p356
I0
sVRemarkPYQuanPin
p357
g52
sVHeadImgUrl
p358
V/cgi-bin/mmwebwx-bin/webwxgeticon?seq=603851910&username=@b9063f7425b77ab04729a61ca083d96dd1398f6d44799d4c536328cf29436093&skey=@crypt_bda10ae4_7912f22414291f18442f1ca0d282635b
p359
sVKeyWord
p360
g52
sVProvince
p361
V\u5317\u4eac
p362
sVPYInitial
p363
VECHOXM
p364
sVRemarkName
p365
g52
sVIsOwner
p366
I0
sVSex
p367
I2
sVStarFriend
p368
I0
sVHideInputBarFlag
p369
I0
sVChatRoomId
p370
I0
sVEncryChatRoomId
p371
g52
sVAttrStatus
p372
I67224677
sVStatues
p373
I0
stp374
Rp375
I1
bag34
(g38
g39
(dp376
VUserName
p377
V@d9977a1800fb3dc3775c62087b1fb5b6e33ab28be143cc3e0d9701edb8a765d3
p378
sVCity
p379
g52
sVSnsFlag
p380
I17
sVDisplayName
p381
g52
sVUniFriend
p382
I0
sVMemberCount
p383
I0
sVOwnerUin
p384
I0
sVMemberList
p385
g50
sVAlias
p386
g52
sVPYQuanPin
p387
Vmeiguishilichunfeng
p388
sVSignature
p389
V\u800c\u4eca\u6811\u58ee\u5fd7        \u4ee5\u5f85\u626c\u56fd\u5a01
p390
sVRemarkPYInitial
p391
g52
sVContactFlag
p392
I3
sVUin
p393
I0
sVNickName
p394
V[\u73ab\u7470]\u5341\u91cc\u6625\u98ce
p395
sVAppAccountFlag
p396
I0
sVVerifyFlag
p397
I0
sVRemarkPYQuanPin
p398
g52
sVHeadImgUrl
p399
V/cgi-bin/mmwebwx-bin/webwxgeticon?seq=603852839&username=@d9977a1800fb3dc3775c62087b1fb5b6e33ab28be143cc3e0d9701edb8a765d3&skey=@crypt_bda10ae4_7912f22414291f18442f1ca0d282635b
p400
sVKeyWord
p401
g52
sVProvince
p402
VParis
p403
sVPYInitial
p404
VMGSLCF
p405
sVRemarkName
p406
g52
sVIsOwner
p407
I0
sVSex
p408
I1
sVStarFriend
p409
I0
sVHideInputBarFlag
p410
I0
sVChatRoomId
p411
I0
sVEncryChatRoomId
p412
g52
sVAttrStatus
p413
I102439
sVStatues
p414
I0
stp415
Rp416
I1
bag34
(g38
g39
(dp417
VUserName
p418
V@c9965e4bdfd8317db27f1a7df6697ffe
p419
sVCity
p420
V\u671d\u9633
p421
sVSnsFlag
p422
I49
sVDisplayName
p423
g52
sVUniFriend
p424
I0
sVMemberCount
p425
I0
sVOwnerUin
p426
I0
sVMemberList
p427
g50
sVAlias
p428
g52
sVPYQuanPin
p429
Vspanclassemojiemoji1f343span
p430
sVSignature
p431
V<span class="emoji emoji2708"></span>\ufe0f
p432
sVRemarkPYInitial
p433
g52
sVContactFlag
p434
I3
sVUin
p435
I0
sVNickName
p436
V\U0001f343
p437
sVAppAccountFlag
p438
I0
sVVerifyFlag
p439
I0
sVRemarkPYQuanPin
p440
g52
sVHeadImgUrl
p441
V/cgi-bin/mmwebwx-bin/webwxgeticon?seq=606870188&username=@c9965e4bdfd8317db27f1a7df6697ffe&skey=@crypt_bda10ae4_7912f22414291f18442f1ca0d282635b
p442
sVKeyWord
p443
VYE1
p444
sVProvince
p445
V\u5317\u4eac
p446
sVPYInitial
p447
VSPANCLASSEMOJIEMOJI1F343SPAN
p448
sVRemarkName
p449
g52
sVIsOwner
p450
I0
sVSex
p451
I2
sVStarFriend
p452
I0
sVHideInputBarFlag
p453
I0
sVChatRoomId
p454
I0
sVEncryChatRoomId
p455
g52
sVAttrStatus
p456
I229863
sVStatues
p457
I0
stp458
Rp459
I1
batp460
Rp461
I1
bsS'chatroomList'
p462
g34
(g35
g36
(lp463
g34
(cchatcore.storage.templates
Chatroom
p464
g39
(dp465
VUserName
p466
V@@acb3e370f304d18577681ae96feae2e4413e2c27f6df0a211dd203a368d5ef5d
p467
sVCity
p468
g52
sVDisplayName
p469
g52
sVUniFriend
p470
I0
sS'Self'
p471
g34
(g38
g39
(dp472
g41
g31
sg42
g43
sg44
g43
sg45
I0
sg46
I0
sg47
g34
(g35
g36
(lp473
tp474
Rp475
I1
bsg51
g52
sg53
g52
sg54
I3413407412
sg55
I0
sg56
I0
sg57
g43
sg58
g43
sg59
g52
sg60
g52
sg61
I0
sg62
I0
sg63
I1
sg64
g43
sg65
I0
sg66
I0
sg67
I0
sg68
I0
sg69
g43
sg70
g52
sg71
I0
sg72
g73
sg74
g52
sg75
g76
sg77
I0
sg78
I0
sg79
I0
stp476
Rp477
I1
bsVMemberList
p478
g34
(g35
g36
(lp479
tp480
Rp481
I1
bsVPYQuanPin
p482
g52
sVRemarkPYInitial
p483
g52
sVSex
p484
I0
sVAppAccountFlag
p485
I0
sVVerifyFlag
p486
I0
sVProvince
p487
g52
sVKeyWord
p488
g52
sVRemarkName
p489
g52
sVPYInitial
p490
g52
sVIsOwner
p491
I0
sVChatRoomId
p492
I0
sVHideInputBarFlag
p493
I0
sVEncryChatRoomId
p494
g52
sVAttrStatus
p495
I0
sVSnsFlag
p496
I0
sVMemberCount
p497
I3
sVOwnerUin
p498
I0
sVAlias
p499
g52
sS'IsAdmin'
p500
NsVSignature
p501
g52
sVContactFlag
p502
I0
sVNickName
p503
V\u7a0b\u5e8f\u733f\u7684\u4eba\u5de5\u667a\u80fd\u5973\u53cb
p504
sVRemarkPYQuanPin
p505
g52
sVHeadImgUrl
p506
V/cgi-bin/mmwebwx-bin/webwxgetheadimg?seq=0&username=@@acb3e370f304d18577681ae96feae2e4413e2c27f6df0a211dd203a368d5ef5d&skey=@crypt_bda10ae4_7912f22414291f18442f1ca0d282635b
p507
sVUin
p508
I0
sVStarFriend
p509
I0
sVStatues
p510
I1
stp511
Rp512
I1
bag34
(g464
g39
(dp513
VUserName
p514
V@@4db4ad11aa3fdab0a517f01e3e3e3a1b95acde299aa6f779c68ef82dd7e740ed
p515
sVCity
p516
g52
sVDisplayName
p517
g52
sVUniFriend
p518
I0
sg471
g34
(g38
g39
(dp519
g41
g31
sg42
g43
sg44
g43
sg45
I0
sg46
I0
sg47
g34
(g35
g36
(lp520
tp521
Rp522
I1
bsg51
g52
sg53
g52
sg54
I3413407412
sg55
I0
sg56
I0
sg57
g43
sg58
g43
sg59
g52
sg60
g52
sg61
I0
sg62
I0
sg63
I1
sg64
g43
sg65
I0
sg66
I0
sg67
I0
sg68
I0
sg69
g43
sg70
g52
sg71
I0
sg72
g73
sg74
g52
sg75
g76
sg77
I0
sg78
I0
sg79
I0
stp523
Rp524
I1
bsVMemberList
p525
g34
(g35
g36
(lp526
tp527
Rp528
I1
bsVPYQuanPin
p529
g52
sVRemarkPYInitial
p530
g52
sVSex
p531
I0
sVAppAccountFlag
p532
I0
sVVerifyFlag
p533
I0
sVProvince
p534
g52
sVKeyWord
p535
g52
sVRemarkName
p536
g52
sVPYInitial
p537
g52
sVIsOwner
p538
I0
sVChatRoomId
p539
I0
sVHideInputBarFlag
p540
I0
sVEncryChatRoomId
p541
g52
sVAttrStatus
p542
I0
sVSnsFlag
p543
I0
sVMemberCount
p544
I8
sVOwnerUin
p545
I0
sVAlias
p546
g52
sg500
NsVSignature
p547
g52
sVContactFlag
p548
I2
sVNickName
p549
V\u7ea2\u5305\u96e8
p550
sVRemarkPYQuanPin
p551
g52
sVHeadImgUrl
p552
V/cgi-bin/mmwebwx-bin/webwxgetheadimg?seq=603850892&username=@@4db4ad11aa3fdab0a517f01e3e3e3a1b95acde299aa6f779c68ef82dd7e740ed&skey=@crypt_bda10ae4_7912f22414291f18442f1ca0d282635b
p553
sVUin
p554
I0
sVStarFriend
p555
I0
sVStatues
p556
I1
stp557
Rp558
I1
bag34
(g464
g39
(dp559
VUserName
p560
V@@07aeca0ea7fb8ab78be52c1a0168f80f86d13adf97069ae36e0b6f5ca695c8d7
p561
sVCity
p562
g52
sVDisplayName
p563
g52
sVUniFriend
p564
I0
sg471
g34
(g38
g39
(dp565
g41
g31
sg42
g43
sg44
g43
sg45
I0
sg46
I0
sg47
g34
(g35
g36
(lp566
tp567
Rp568
I1
bsg51
g52
sg53
g52
sg54
I3413407412
sg55
I0
sg56
I0
sg57
g43
sg58
g43
sg59
g52
sg60
g52
sg61
I0
sg62
I0
sg63
I1
sg64
g43
sg65
I0
sg66
I0
sg67
I0
sg68
I0
sg69
g43
sg70
g52
sg71
I0
sg72
g73
sg74
g52
sg75
g76
sg77
I0
sg78
I0
sg79
I0
stp569
Rp570
I1
bsVMemberList
p571
g34
(g35
g36
(lp572
tp573
Rp574
I1
bsVPYQuanPin
p575
g52
sVRemarkPYInitial
p576
g52
sVSex
p577
I0
sVAppAccountFlag
p578
I0
sVVerifyFlag
p579
I0
sVProvince
p580
g52
sVKeyWord
p581
g52
sVRemarkName
p582
g52
sVPYInitial
p583
g52
sVIsOwner
p584
I0
sVChatRoomId
p585
I0
sVHideInputBarFlag
p586
I0
sVEncryChatRoomId
p587
g52
sVAttrStatus
p588
I0
sVSnsFlag
p589
I0
sVMemberCount
p590
I3
sVOwnerUin
p591
I0
sVAlias
p592
g52
sg500
NsVSignature
p593
g52
sVContactFlag
p594
I0
sVNickName
p595
VYat3s,echo\u5c0f\u840c,Aran
p596
sVRemarkPYQuanPin
p597
g52
sVHeadImgUrl
p598
V/cgi-bin/mmwebwx-bin/webwxgetheadimg?seq=0&username=@@07aeca0ea7fb8ab78be52c1a0168f80f86d13adf97069ae36e0b6f5ca695c8d7&skey=@crypt_bda10ae4_7912f22414291f18442f1ca0d282635b
p599
sVUin
p600
I0
sVStarFriend
p601
I0
sVStatues
p602
I1
stp603
Rp604
I1
bag34
(g464
g39
(dp605
VUserName
p606
V@@2e3029dbc3ef7eccf0a45d4b818c86f547639a4e0a066b99e86e6bbee4cef3a9
p607
sVCity
p608
g52
sVDisplayName
p609
g52
sVUniFriend
p610
I0
sg471
g34
(g38
g39
(dp611
g41
g31
sg42
g43
sg44
g43
sg45
I0
sg46
I0
sg47
g34
(g35
g36
(lp612
tp613
Rp614
I1
bsg51
g52
sg53
g52
sg54
I3413407412
sg55
I0
sg56
I0
sg57
g43
sg58
g43
sg59
g52
sg60
g52
sg61
I0
sg62
I0
sg63
I1
sg64
g43
sg65
I0
sg66
I0
sg67
I0
sg68
I0
sg69
g43
sg70
g52
sg71
I0
sg72
g73
sg74
g52
sg75
g76
sg77
I0
sg78
I0
sg79
I0
stp615
Rp616
I1
bsVMemberList
p617
g34
(g35
g36
(lp618
tp619
Rp620
I1
bsVPYQuanPin
p621
g52
sVRemarkPYInitial
p622
g52
sVSex
p623
I0
sVAppAccountFlag
p624
I0
sVVerifyFlag
p625
I0
sVProvince
p626
g52
sVKeyWord
p627
g52
sVRemarkName
p628
g52
sVPYInitial
p629
g52
sVIsOwner
p630
I0
sVChatRoomId
p631
I0
sVHideInputBarFlag
p632
I0
sVEncryChatRoomId
p633
g52
sVAttrStatus
p634
I0
sVSnsFlag
p635
I0
sVMemberCount
p636
I3
sVOwnerUin
p637
I0
sVAlias
p638
g52
sg500
NsVSignature
p639
g52
sVContactFlag
p640
I0
sVNickName
p641
V\u4e94\u4e07\u6761\u72d7\u6495\u788e\u591c\u7a7a\u4e00\u53ea\u732b\u94bb\u8fdb\u68a6\u91cc,
p642
sVRemarkPYQuanPin
p643
g52
sVHeadImgUrl
p644
V/cgi-bin/mmwebwx-bin/webwxgetheadimg?seq=0&username=@@2e3029dbc3ef7eccf0a45d4b818c86f547639a4e0a066b99e86e6bbee4cef3a9&skey=@crypt_bda10ae4_7912f22414291f18442f1ca0d282635b
p645
sVUin
p646
I0
sVStarFriend
p647
I0
sVStatues
p648
I1
stp649
Rp650
I1
bag34
(g464
g39
(dp651
VUserName
p652
V@@537620d9d25e3e98fec5e024eed5f3beb080da0cd453d3697825826b903cd956
p653
sVCity
p654
g52
sVDisplayName
p655
g52
sVUniFriend
p656
I0
sg471
g34
(g38
g39
(dp657
g41
g31
sg42
g43
sg44
g43
sg45
I0
sg46
I0
sg47
g34
(g35
g36
(lp658
tp659
Rp660
I1
bsg51
g52
sg53
g52
sg54
I3413407412
sg55
I0
sg56
I0
sg57
g43
sg58
g43
sg59
g52
sg60
g52
sg61
I0
sg62
I0
sg63
I1
sg64
g43
sg65
I0
sg66
I0
sg67
I0
sg68
I0
sg69
g43
sg70
g52
sg71
I0
sg72
g73
sg74
g52
sg75
g76
sg77
I0
sg78
I0
sg79
I0
stp661
Rp662
I1
bsVMemberList
p663
g34
(g35
g36
(lp664
tp665
Rp666
I1
bsVPYQuanPin
p667
g52
sVRemarkPYInitial
p668
g52
sVSex
p669
I0
sVAppAccountFlag
p670
I0
sVVerifyFlag
p671
I0
sVProvince
p672
g52
sVKeyWord
p673
g52
sVRemarkName
p674
g52
sVPYInitial
p675
g52
sVIsOwner
p676
I0
sVChatRoomId
p677
I0
sVHideInputBarFlag
p678
I0
sVEncryChatRoomId
p679
g52
sVAttrStatus
p680
I0
sVSnsFlag
p681
I0
sVMemberCount
p682
I10
sVOwnerUin
p683
I0
sVAlias
p684
g52
sg500
NsVSignature
p685
g52
sVContactFlag
p686
I0
sVNickName
p687
V\u5bbe\u679c\u8001\u55e8\uff0c\u5bbe\u679c\u4efd\u4f4e
p688
sVRemarkPYQuanPin
p689
g52
sVHeadImgUrl
p690
V/cgi-bin/mmwebwx-bin/webwxgetheadimg?seq=0&username=@@537620d9d25e3e98fec5e024eed5f3beb080da0cd453d3697825826b903cd956&skey=@crypt_bda10ae4_7912f22414291f18442f1ca0d282635b
p691
sVUin
p692
I0
sVStarFriend
p693
I0
sVStatues
p694
I0
stp695
Rp696
I1
bag34
(g464
g39
(dp697
VUserName
p698
V@@c634458de877953ff5f245c629c59a7432e32052997fa6234c7d2d7ec172221e
p699
sVCity
p700
g52
sVDisplayName
p701
g52
sVUniFriend
p702
I0
sg471
g34
(g38
g39
(dp703
g41
g31
sg42
g43
sg44
g43
sg45
I0
sg46
I0
sg47
g34
(g35
g36
(lp704
tp705
Rp706
I1
bsg51
g52
sg53
g52
sg54
I3413407412
sg55
I0
sg56
I0
sg57
g43
sg58
g43
sg59
g52
sg60
g52
sg61
I0
sg62
I0
sg63
I1
sg64
g43
sg65
I0
sg66
I0
sg67
I0
sg68
I0
sg69
g43
sg70
g52
sg71
I0
sg72
g73
sg74
g52
sg75
g76
sg77
I0
sg78
I0
sg79
I0
stp707
Rp708
I1
bsVMemberList
p709
g34
(g35
g36
(lp710
tp711
Rp712
I1
bsVPYQuanPin
p713
g52
sVRemarkPYInitial
p714
g52
sVSex
p715
I0
sVAppAccountFlag
p716
I0
sVVerifyFlag
p717
I0
sVProvince
p718
g52
sVKeyWord
p719
g52
sVRemarkName
p720
g52
sVPYInitial
p721
g52
sVIsOwner
p722
I0
sVChatRoomId
p723
I0
sVHideInputBarFlag
p724
I0
sVEncryChatRoomId
p725
g52
sVAttrStatus
p726
I0
sVSnsFlag
p727
I0
sVMemberCount
p728
I8
sVOwnerUin
p729
I0
sVAlias
p730
g52
sg500
NsVSignature
p731
g52
sVContactFlag
p732
I2
sVNickName
p733
Vbdp\u79fb\u52a8\u7ec4
p734
sVRemarkPYQuanPin
p735
g52
sVHeadImgUrl
p736
V/cgi-bin/mmwebwx-bin/webwxgetheadimg?seq=603850379&username=@@c634458de877953ff5f245c629c59a7432e32052997fa6234c7d2d7ec172221e&skey=@crypt_bda10ae4_7912f22414291f18442f1ca0d282635b
p737
sVUin
p738
I0
sVStarFriend
p739
I0
sVStatues
p740
I1
stp741
Rp742
I1
bag34
(g464
g39
(dp743
VUserName
p744
V@@8b1192117867d94bb275eda041980e4857ad0dc36575ae15b1d264fc639b2763
p745
sVCity
p746
g52
sVDisplayName
p747
g52
sVUniFriend
p748
I0
sg471
g34
(g38
g39
(dp749
g41
g31
sg42
g43
sg44
g43
sg45
I0
sg46
I0
sg47
g34
(g35
g36
(lp750
tp751
Rp752
I1
bsg51
g52
sg53
g52
sg54
I3413407412
sg55
I0
sg56
I0
sg57
g43
sg58
g43
sg59
g52
sg60
g52
sg61
I0
sg62
I0
sg63
I1
sg64
g43
sg65
I0
sg66
I0
sg67
I0
sg68
I0
sg69
g43
sg70
g52
sg71
I0
sg72
g73
sg74
g52
sg75
g76
sg77
I0
sg78
I0
sg79
I0
stp753
Rp754
I1
bsVMemberList
p755
g34
(g35
g36
(lp756
tp757
Rp758
I1
bsVPYQuanPin
p759
g52
sVRemarkPYInitial
p760
g52
sVSex
p761
I0
sVAppAccountFlag
p762
I0
sVVerifyFlag
p763
I0
sVProvince
p764
g52
sVKeyWord
p765
g52
sVRemarkName
p766
g52
sVPYInitial
p767
g52
sVIsOwner
p768
I0
sVChatRoomId
p769
I0
sVHideInputBarFlag
p770
I0
sVEncryChatRoomId
p771
g52
sVAttrStatus
p772
I0
sVSnsFlag
p773
I0
sVMemberCount
p774
I3
sVOwnerUin
p775
I0
sVAlias
p776
g52
sg500
NsVSignature
p777
g52
sVContactFlag
p778
I0
sVNickName
p779
VYat3s,Kerry,Aran
p780
sVRemarkPYQuanPin
p781
g52
sVHeadImgUrl
p782
V/cgi-bin/mmwebwx-bin/webwxgetheadimg?seq=0&username=@@8b1192117867d94bb275eda041980e4857ad0dc36575ae15b1d264fc639b2763&skey=@crypt_bda10ae4_7912f22414291f18442f1ca0d282635b
p783
sVUin
p784
I0
sVStarFriend
p785
I0
sVStatues
p786
I1
stp787
Rp788
I1
batp789
Rp790
I1
bsS'nickName'
p791
g73
sS'mpList'
p792
g34
(g35
g36
(lp793
g34
(cchatcore.storage.templates
MassivePlatform
p794
g39
(dp795
VUserName
p796
V@3a576f6fd4640473b275b984c702244a
p797
sVCity
p798
V\u5e7f\u5dde
p799
sVSnsFlag
p800
I0
sVDisplayName
p801
g52
sVUniFriend
p802
I0
sVMemberCount
p803
I0
sVOwnerUin
p804
I0
sVMemberList
p805
g50
sVAlias
p806
g52
sVPYQuanPin
p807
Vgongzhongpingtaianquanzhushou
p808
sVSignature
p809
V\u63d0\u4f9b\u5fae\u4fe1\u516c\u4f17\u53f7\u767b\u5f55\u548c\u7fa4\u53d1\u7b49\u5b89\u5168\u64cd\u4f5c\uff0c\u5728\u624b\u673a\u4e0a\u67e5\u6536\u6d88\u606f\u3001\u8bc4\u8bba\u3001\u8d5e\u8d4f\uff0c\u65b0\u5efa\u7fa4\u53d1\u548c\u67e5\u770b\u7fa4\u53d1\u5386\u53f2\u3002
p810
sVRemarkPYInitial
p811
g52
sVContactFlag
p812
I3
sVUin
p813
I0
sVNickName
p814
V\u516c\u4f17\u5e73\u53f0\u5b89\u5168\u52a9\u624b
p815
sVAppAccountFlag
p816
I0
sVVerifyFlag
p817
I24
sVRemarkPYQuanPin
p818
g52
sVHeadImgUrl
p819
V/cgi-bin/mmwebwx-bin/webwxgeticon?seq=600880067&username=@3a576f6fd4640473b275b984c702244a&skey=@crypt_bda10ae4_7912f22414291f18442f1ca0d282635b
p820
sVKeyWord
p821
Vmph
p822
sVProvince
p823
V\u5e7f\u4e1c
p824
sVPYInitial
p825
VGZPTAQZS
p826
sVRemarkName
p827
g52
sVIsOwner
p828
I0
sVSex
p829
I0
sVStarFriend
p830
I0
sVHideInputBarFlag
p831
I0
sVChatRoomId
p832
I0
sVEncryChatRoomId
p833
g52
sVAttrStatus
p834
I98459
sVStatues
p835
I0
stp836
Rp837
I1
bag34
(g794
g39
(dp838
VUserName
p839
V@86d9d3d9a198068f7a5af12dc3718f6b
p840
sVCity
p841
V\u897f\u57ce
p842
sVSnsFlag
p843
I0
sVDisplayName
p844
g52
sVUniFriend
p845
I0
sVMemberCount
p846
I0
sVOwnerUin
p847
I0
sVMemberList
p848
g50
sVAlias
p849
g52
sVPYQuanPin
p850
Vzhongguoliantong
p851
sVSignature
p852
V\u4e2d\u56fd\u8054\u901a\u5fae\u4fe1\u8425\u4e1a\u5385\uff0c\u4fbf\u6377\u968f\u8eab\uff0c\u67e5\u8be2\u529e\u7406\u4e00\u952e\u641e\u5b9a\uff0c\u8fd8\u6709\u5ba2\u670dMM\u8d34\u5fc3\u89e3\u5fe7\uff0c\u66f4\u591a\u8d44\u8baf\u63a8\u8350\u4e0e\u60a8\u5206\u4eab\u3002\u656c\u8bf7\u5149\u4e34\uff0c\u671f\u5f85\u60ca\u559c\uff01
p853
sVRemarkPYInitial
p854
g52
sVContactFlag
p855
I3
sVUin
p856
I0
sVNickName
p857
V\u4e2d\u56fd\u8054\u901a
p858
sVAppAccountFlag
p859
I0
sVVerifyFlag
p860
I24
sVRemarkPYQuanPin
p861
g52
sVHeadImgUrl
p862
V/cgi-bin/mmwebwx-bin/webwxgeticon?seq=603850307&username=@86d9d3d9a198068f7a5af12dc3718f6b&skey=@crypt_bda10ae4_7912f22414291f18442f1ca0d282635b
p863
sVKeyWord
p864
Vgh_
p865
sVProvince
p866
V\u5317\u4eac
p867
sVPYInitial
p868
VZGLT
p869
sVRemarkName
p870
g52
sVIsOwner
p871
I0
sVSex
p872
I0
sVStarFriend
p873
I0
sVHideInputBarFlag
p874
I0
sVChatRoomId
p875
I0
sVEncryChatRoomId
p876
g52
sVAttrStatus
p877
I0
sVStatues
p878
I0
stp879
Rp880
I1
batp881
Rp882
I1
bssS'loginInfo'
p883
(dp884
S'SyncKey'
p885
(dp886
VCount
p887
I4
sVList
p888
(lp889
(dp890
VVal
p891
I606870494
sVKey
p892
I1
sa(dp893
VVal
p894
I606870784
sVKey
p895
I2
sa(dp896
VVal
p897
I606870772
sVKey
p898
I3
sa(dp899
VVal
p900
I1493460182
sVKey
p901
I1000
sassS'syncUrl'
p902
S'https://webpush.wx2.qq.com/cgi-bin/mmwebwx-bin'
p903
sS'skey'
p904
V@crypt_bda10ae4_7912f22414291f18442f1ca0d282635b
p905
sS'wxuin'
p906
V3413407412
p907
sS'synckey'
p908
S'1_606870494|2_606870784|3_606870772|1000_1493460182'
p909
sS'url'
p910
Vhttps://wx2.qq.com/cgi-bin/mmwebwx-bin
p911
sS'pass_ticket'
p912
V8hhY1Ifgh8pSFRGXJX7JtyrkVfG000EM5cnbgsoODdyBciTKMq2iB5UaJyB2B5Qp
p913
sS'wxsid'
p914
VMwhx7JsCetOLERB7
p915
sS'InviteStartCount'
p916
I40
sS'User'
p917
g34
(g38
g39
(dp918
g41
g31
sg42
g43
sg44
g43
sg45
I0
sg47
g50
sg51
g52
sg53
g52
sg77
I0
sg55
I0
sg56
I0
sg57
g43
sg58
g43
sg59
g52
sg60
g52
sg61
I0
sg62
I0
sg63
I1
sg64
g43
sg65
I0
sg68
I0
sg66
I0
sg67
I0
sg46
I0
sg69
g43
sg70
g52
sg71
I0
sg72
g73
sg74
g52
sg75
g76
sg54
I3413407412
sg78
I0
sg79
I0
stp919
Rp920
I1
bsS'fileUrl'
p921
S'https://file.wx2.qq.com/cgi-bin/mmwebwx-bin'
p922
sS'BaseRequest'
p923
(dp924
g54
g907
sS'Skey'
p925
g905
sS'DeviceID'
p926
g913
sS'Sid'
p927
g915
ssS'deviceid'
p928
S'e823716345986386'
p929
ss.