(dp0
S'cookies'
p1
(dp2
S'wxloadtime'
p3
S'1493119386'
p4
sS'webwx_data_ticket'
p5
S'gSfrfa9Ny4PGI9XUBadgVECh'
p6
sS'wxuin'
p7
S'3413407412'
p8
sS'login_frequency'
p9
S'2'
p10
sS'MM_WX_NOTIFY_STATE'
p11
S'1'
p12
sS'MM_WX_SOUND_STATE'
p13
g12
sS'webwx_auth_ticket'
p14
S'CIsBEI3wgu0GGoABP43Fzzak9qzNODU6+49NmeBFmEPmcFYkh6UNfVEmRNkXjOL6+U8kb8DxcLfzv6KrfhjD8L4OIX/B03fL3vPpQ5FUy+H+rBtdh4xLdztoPceGypb6pX25KmzgTGZwbnCxII1YSADXvI66IohaixExHBFN85k+IB4fikaBbsCEJ/E='
p15
sS'last_wxuin'
p16
S'3413407412'
p17
sS'webwxuvid'
p18
S'0ad038a387f4269064e4a4417f4f53ec9b6b8052500512bb6d9a9cdb70b0d5658e9a36e194c37bd189fa24c747f67b04'
p19
sS'wxpluginkey'
p20
S'1493110805'
p21
sS'wxsid'
p22
S'upO6YXqjjOGpXak4'
p23
sS'mm_lang'
p24
S'zh_CN'
p25
ssS'version'
p26
S'1.3.5'
p27
sS'storage'
p28
(dp29
S'userName'
p30
V@313c962afd6991e6f8abd8e4c5377b4995743b71c047b8afa203325f5da7eb6c
p31
sS'lastInputUserName'
p32
NsS'memberList'
p33
ccopy_reg
_reconstructor
p34
(citchat.storage.templates
ContactList
p35
c__builtin__
list
p36
(lp37
g34
(citchat.storage.templates
User
p38
c__builtin__
dict
p39
(dp40
S'UserName'
p41
g31
sS'City'
p42
S''
p43
sS'DisplayName'
p44
g43
sS'UniFriend'
p45
I0
sS'OwnerUin'
p46
I0
sS'MemberList'
p47
g34
(g35
g36
(lp48
tp49
Rp50
I1
bsS'PYQuanPin'
p51
V
p52
sS'RemarkPYInitial'
p53
g52
sS'Uin'
p54
I3413407412
sS'AppAccountFlag'
p55
I0
sS'VerifyFlag'
p56
I0
sS'Province'
p57
g43
sS'KeyWord'
p58
g43
sS'RemarkName'
p59
g52
sS'PYInitial'
p60
g52
sS'ChatRoomId'
p61
I0
sS'HideInputBarFlag'
p62
I0
sVHeadImgFlag
p63
I1
sS'EncryChatRoomId'
p64
g43
sS'AttrStatus'
p65
I0
sS'SnsFlag'
p66
I0
sS'MemberCount'
p67
I0
sVWebWxPluginSwitch
p68
I0
sS'Alias'
p69
g43
sS'Signature'
p70
g52
sS'ContactFlag'
p71
I0
sS'NickName'
p72
VAran
p73
sS'RemarkPYQuanPin'
p74
g52
sS'HeadImgUrl'
p75
V/cgi-bin/mmwebwx-bin/webwxgeticon?seq=1225060989&username=@313c962afd6991e6f8abd8e4c5377b4995743b71c047b8afa203325f5da7eb6c&skey=@crypt_bda10ae4_fc5fea500cdf45c7023d2688bbb04cd1
p76
sS'Sex'
p77
I0
sS'StarFriend'
p78
I0
sS'Statues'
p79
I0
stp80
Rp81
I1
bag34
(g38
g39
(dp82
VUserName
p83
V@0a23553efaec934aa41412da0061be18f3dbd4044c00d5e044bc3d9920e5b9fb
p84
sVCity
p85
V\u4e1c\u57ce
p86
sVSnsFlag
p87
I49
sVDisplayName
p88
g52
sVUniFriend
p89
I0
sVMemberCount
p90
I0
sVOwnerUin
p91
I0
sVMemberList
p92
g50
sVAlias
p93
VYe-zone
p94
sVPYQuanPin
p95
VYat3s
p96
sVSignature
p97
V\u4e00\u53ea\u7231\u73a9\u7684\u7a0b\u5e8f\u6c6a<span class="emoji emoji1f436"></span>
p98
sVRemarkPYInitial
p99
g52
sVContactFlag
p100
I3
sVUin
p101
I0
sVNickName
p102
VYat3s
p103
sVAppAccountFlag
p104
I0
sVVerifyFlag
p105
I0
sVRemarkPYQuanPin
p106
g52
sVHeadImgUrl
p107
V/cgi-bin/mmwebwx-bin/webwxgeticon?seq=603850332&username=@0a23553efaec934aa41412da0061be18f3dbd4044c00d5e044bc3d9920e5b9fb&skey=@crypt_bda10ae4_fc5fea500cdf45c7023d2688bbb04cd1
p108
sVKeyWord
p109
g52
sVProvince
p110
V\u5317\u4eac
p111
sVPYInitial
p112
VYAT3S
p113
sVRemarkName
p114
g52
sVIsOwner
p115
I0
sVSex
p116
I1
sVStarFriend
p117
I0
sVHideInputBarFlag
p118
I0
sVChatRoomId
p119
I0
sVEncryChatRoomId
p120
g52
sVAttrStatus
p121
I37851239
sVStatues
p122
I0
stp123
Rp124
I1
bag34
(g38
g39
(dp125
VUserName
p126
V@cf734a7a01c591e5b7a30466399b26e4ec28a253c498f5a33f16383c933a40d1
p127
sVCity
p128
V\u671d\u9633
p129
sVSnsFlag
p130
I17
sVDisplayName
p131
g52
sVUniFriend
p132
I0
sVMemberCount
p133
I0
sVOwnerUin
p134
I0
sVMemberList
p135
g50
sVAlias
p136
Vmy_cheese92
p137
sVPYQuanPin
p138
VKerry
p139
sVSignature
p140
V\u4ee5\u68a6\u4e3a\u9a6c\uff0c\u4e0d\u8d1f\u97f6\u534e
p141
sVRemarkPYInitial
p142
g52
sVContactFlag
p143
I3
sVUin
p144
I0
sVNickName
p145
VKerry
p146
sVAppAccountFlag
p147
I0
sVVerifyFlag
p148
I0
sVRemarkPYQuanPin
p149
g52
sVHeadImgUrl
p150
V/cgi-bin/mmwebwx-bin/webwxgeticon?seq=603850763&username=@cf734a7a01c591e5b7a30466399b26e4ec28a253c498f5a33f16383c933a40d1&skey=@crypt_bda10ae4_fc5fea500cdf45c7023d2688bbb04cd1
p151
sVKeyWord
p152
g52
sVProvince
p153
V\u5317\u4eac
p154
sVPYInitial
p155
VKERRY
p156
sVRemarkName
p157
g52
sVIsOwner
p158
I0
sVSex
p159
I2
sVStarFriend
p160
I0
sVHideInputBarFlag
p161
I0
sVChatRoomId
p162
I0
sVEncryChatRoomId
p163
g52
sVAttrStatus
p164
I33674359
sVStatues
p165
I0
stp166
Rp167
I1
bag34
(g38
g39
(dp168
VUserName
p169
V@a38b613b7f3cfddea5ec402cf1c7d91923cbc2f54db04158e3956e02596c4ea4
p170
sVCity
p171
g52
sVSnsFlag
p172
I17
sVDisplayName
p173
g52
sVUniFriend
p174
I0
sVMemberCount
p175
I0
sVOwnerUin
p176
I0
sVMemberList
p177
g50
sVAlias
p178
VJava2048
p179
sVPYQuanPin
p180
Vxiaodeqiu
p181
sVSignature
p182
V\u5b66\u800c\u4e0d\u601d\u5219\u7f54\uff0c\u54c8\u54c8
p183
sVRemarkPYInitial
p184
g52
sVContactFlag
p185
I3
sVUin
p186
I0
sVNickName
p187
V\u5c0f\u5730\u7403
p188
sVAppAccountFlag
p189
I0
sVVerifyFlag
p190
I0
sVRemarkPYQuanPin
p191
g52
sVHeadImgUrl
p192
V/cgi-bin/mmwebwx-bin/webwxgeticon?seq=603851078&username=@a38b613b7f3cfddea5ec402cf1c7d91923cbc2f54db04158e3956e02596c4ea4&skey=@crypt_bda10ae4_fc5fea500cdf45c7023d2688bbb04cd1
p193
sVKeyWord
p194
g52
sVProvince
p195
VFrankfurt
p196
sVPYInitial
p197
VXDQ
p198
sVRemarkName
p199
g52
sVIsOwner
p200
I0
sVSex
p201
I1
sVStarFriend
p202
I0
sVHideInputBarFlag
p203
I0
sVChatRoomId
p204
I0
sVEncryChatRoomId
p205
g52
sVAttrStatus
p206
I33789989
sVStatues
p207
I0
stp208
Rp209
I1
bag34
(g38
g39
(dp210
VUserName
p211
V@2becdb6834713a8ac68d7fb8e49ad59d3ebc1db9e0bfc5b6044075d7df67d51e
p212
sVCity
p213
V\u8d63\u5dde
p214
sVSnsFlag
p215
I49
sVDisplayName
p216
g52
sVUniFriend
p217
I0
sVMemberCount
p218
I0
sVOwnerUin
p219
I0
sVMemberList
p220
g50
sVAlias
p221
VElain1025
p222
sVPYQuanPin
p223
Vxiaoliao15807504515
p224
sVSignature
p225
V\u4e0b\u8f88\u5b50\u6295\u80ce\u505a\u4e2a\u7537\u4eba\uff0c\u5a36\u4e2a\u50cf\u6211\u8fd9\u6837\u7684\u5973\u4eba\U0001f64815807504515
p226
sVRemarkPYInitial
p227
VELAINE
p228
sVContactFlag
p229
I3
sVUin
p230
I0
sVNickName
p231
V\u5c0f\u5ed6 15807504515
p232
sVAppAccountFlag
p233
I0
sVVerifyFlag
p234
I0
sVRemarkPYQuanPin
p235
VElaine
p236
sVHeadImgUrl
p237
V/cgi-bin/mmwebwx-bin/webwxgeticon?seq=603850127&username=@2becdb6834713a8ac68d7fb8e49ad59d3ebc1db9e0bfc5b6044075d7df67d51e&skey=@crypt_bda10ae4_fc5fea500cdf45c7023d2688bbb04cd1
p238
sVKeyWord
p239
g52
sVProvince
p240
V\u6c5f\u897f
p241
sVPYInitial
p242
VXL15807504515
p243
sVRemarkName
p244
VElaine
p245
sVIsOwner
p246
I0
sVSex
p247
I2
sVStarFriend
p248
I0
sVHideInputBarFlag
p249
I0
sVChatRoomId
p250
I0
sVEncryChatRoomId
p251
g52
sVAttrStatus
p252
I69669
sVStatues
p253
I0
stp254
Rp255
I1
bag34
(g38
g39
(dp256
VUserName
p257
V@5defddd2cec3a58c8fc5a0bc71b70810
p258
sVCity
p259
V\u8475\u9752\u533a
p260
sVSnsFlag
p261
I49
sVDisplayName
p262
g52
sVUniFriend
p263
I0
sVMemberCount
p264
I0
sVOwnerUin
p265
I0
sVMemberList
p266
g50
sVAlias
p267
g52
sVPYQuanPin
p268
Vspanclassemojiemoji1f335spanyezhier
p269
sVSignature
p270
V\u65f6\u5149\u6f2b\u957f\uff0c\u6709\u6211\u522b\u614c\u3002<span class="emoji emoji1f618"></span>
p271
sVRemarkPYInitial
p272
g52
sVContactFlag
p273
I3
sVUin
p274
I0
sVNickName
p275
V\U0001f335\u6930\u6c41\u513f
p276
sVAppAccountFlag
p277
I0
sVVerifyFlag
p278
I0
sVRemarkPYQuanPin
p279
g52
sVHeadImgUrl
p280
V/cgi-bin/mmwebwx-bin/webwxgeticon?seq=603850968&username=@5defddd2cec3a58c8fc5a0bc71b70810&skey=@crypt_bda10ae4_fc5fea500cdf45c7023d2688bbb04cd1
p281
sVKeyWord
p282
Vyev
p283
sVProvince
p284
V\u9999\u6e2f
p285
sVPYInitial
p286
VSPANCLASSEMOJIEMOJI1F335SPANYZE
p287
sVRemarkName
p288
g52
sVIsOwner
p289
I0
sVSex
p290
I2
sVStarFriend
p291
I0
sVHideInputBarFlag
p292
I0
sVChatRoomId
p293
I0
sVEncryChatRoomId
p294
g52
sVAttrStatus
p295
I67623
sVStatues
p296
I0
stp297
Rp298
I1
bag34
(g38
g39
(dp299
VUserName
p300
V@90462f8f009afa47c602b4084f95e5acad2b1b305467edede174dff5e009da70
p301
sVCity
p302
g52
sVSnsFlag
p303
I17
sVDisplayName
p304
g52
sVUniFriend
p305
I0
sVMemberCount
p306
I0
sVOwnerUin
p307
I0
sVMemberList
p308
g50
sVAlias
p309
VYihoney_
p310
sVPYQuanPin
p311
Vspanclassemojiemoji1f33espancaoyispanclassemojiemoji1f33espan
p312
sVSignature
p313
V\u6709\u82b1\u6709\u6708\u6709\u697c\u53f0 \u4e0d\u98ce\u6d41\u5904\u4e5f\u98ce\u6d41
p314
sVRemarkPYInitial
p315
g52
sVContactFlag
p316
I3
sVUin
p317
I0
sVNickName
p318
V\U0001f33e\u8349\u4e59\U0001f33e
p319
sVAppAccountFlag
p320
I0
sVVerifyFlag
p321
I0
sVRemarkPYQuanPin
p322
g52
sVHeadImgUrl
p323
V/cgi-bin/mmwebwx-bin/webwxgeticon?seq=603850966&username=@90462f8f009afa47c602b4084f95e5acad2b1b305467edede174dff5e009da70&skey=@crypt_bda10ae4_fc5fea500cdf45c7023d2688bbb04cd1
p324
sVKeyWord
p325
g52
sVProvince
p326
g52
sVPYInitial
p327
VSPANCLASSEMOJIEMOJI1F33ESPANCYSPANCLASSEMOJIEMOJI1F33ESPAN
p328
sVRemarkName
p329
g52
sVIsOwner
p330
I0
sVSex
p331
I2
sVStarFriend
p332
I0
sVHideInputBarFlag
p333
I0
sVChatRoomId
p334
I0
sVEncryChatRoomId
p335
g52
sVAttrStatus
p336
I33785893
sVStatues
p337
I0
stp338
Rp339
I1
batp340
Rp341
I1
bsS'chatroomList'
p342
g34
(g35
g36
(lp343
g34
(citchat.storage.templates
Chatroom
p344
g39
(dp345
VUserName
p346
V@@5b4925c8dae748471dd0bc579a99482bd35bb342ad6be8ff678398d23071e3cb
p347
sVCity
p348
g52
sVDisplayName
p349
g52
sVUniFriend
p350
I0
sS'Self'
p351
g34
(g38
g39
(dp352
g41
g31
sg42
g43
sg44
g43
sg45
I0
sg46
I0
sg47
g34
(g35
g36
(lp353
tp354
Rp355
I1
bsg51
g52
sg53
g52
sg54
I3413407412
sg55
I0
sg56
I0
sg57
g43
sg58
g43
sg59
g52
sg60
g52
sg61
I0
sg62
I0
sg63
I1
sg64
g43
sg65
I0
sg66
I0
sg67
I0
sg68
I0
sg69
g43
sg70
g52
sg71
I0
sg72
g73
sg74
g52
sg75
g76
sg77
I0
sg78
I0
sg79
I0
stp356
Rp357
I1
bsVMemberList
p358
g34
(g35
g36
(lp359
tp360
Rp361
I1
bsVPYQuanPin
p362
g52
sVRemarkPYInitial
p363
g52
sVSex
p364
I0
sVAppAccountFlag
p365
I0
sVVerifyFlag
p366
I0
sVProvince
p367
g52
sVKeyWord
p368
g52
sVRemarkName
p369
g52
sVPYInitial
p370
g52
sVIsOwner
p371
I0
sVChatRoomId
p372
I0
sVHideInputBarFlag
p373
I0
sVEncryChatRoomId
p374
g52
sVAttrStatus
p375
I0
sVSnsFlag
p376
I0
sVMemberCount
p377
I3
sVOwnerUin
p378
I0
sVAlias
p379
g52
sS'IsAdmin'
p380
NsVSignature
p381
g52
sVContactFlag
p382
I0
sVNickName
p383
VTsui.,Yat3s,Aran
p384
sVRemarkPYQuanPin
p385
g52
sVHeadImgUrl
p386
V/cgi-bin/mmwebwx-bin/webwxgetheadimg?seq=0&username=@@5b4925c8dae748471dd0bc579a99482bd35bb342ad6be8ff678398d23071e3cb&skey=@crypt_bda10ae4_fc5fea500cdf45c7023d2688bbb04cd1
p387
sVUin
p388
I0
sVStarFriend
p389
I0
sVStatues
p390
I1
stp391
Rp392
I1
bag34
(g344
g39
(dp393
VUserName
p394
V@@71163b0899ee1c8a3c5596215d6313f624608fc807d3a2693d8457097a450b27
p395
sVCity
p396
g52
sVDisplayName
p397
g52
sVUniFriend
p398
I0
sg351
g34
(g38
g39
(dp399
g41
g31
sg42
g43
sg44
g43
sg45
I0
sg46
I0
sg47
g34
(g35
g36
(lp400
tp401
Rp402
I1
bsg51
g52
sg53
g52
sg54
I3413407412
sg55
I0
sg56
I0
sg57
g43
sg58
g43
sg59
g52
sg60
g52
sg61
I0
sg62
I0
sg63
I1
sg64
g43
sg65
I0
sg66
I0
sg67
I0
sg68
I0
sg69
g43
sg70
g52
sg71
I0
sg72
g73
sg74
g52
sg75
g76
sg77
I0
sg78
I0
sg79
I0
stp403
Rp404
I1
bsVMemberList
p405
g34
(g35
g36
(lp406
tp407
Rp408
I1
bsVPYQuanPin
p409
g52
sVRemarkPYInitial
p410
g52
sVSex
p411
I0
sVAppAccountFlag
p412
I0
sVVerifyFlag
p413
I0
sVProvince
p414
g52
sVKeyWord
p415
g52
sVRemarkName
p416
g52
sVPYInitial
p417
g52
sVIsOwner
p418
I0
sVChatRoomId
p419
I0
sVHideInputBarFlag
p420
I0
sVEncryChatRoomId
p421
g52
sVAttrStatus
p422
I0
sVSnsFlag
p423
I0
sVMemberCount
p424
I3
sVOwnerUin
p425
I0
sVAlias
p426
g52
sg380
NsVSignature
p427
g52
sVContactFlag
p428
I0
sVNickName
p429
VYat3s,echo\u5c0f\u840c,Aran
p430
sVRemarkPYQuanPin
p431
g52
sVHeadImgUrl
p432
V/cgi-bin/mmwebwx-bin/webwxgetheadimg?seq=0&username=@@71163b0899ee1c8a3c5596215d6313f624608fc807d3a2693d8457097a450b27&skey=@crypt_bda10ae4_fc5fea500cdf45c7023d2688bbb04cd1
p433
sVUin
p434
I0
sVStarFriend
p435
I0
sVStatues
p436
I1
stp437
Rp438
I1
batp439
Rp440
I1
bsS'nickName'
p441
g73
sS'mpList'
p442
g34
(g35
g36
(lp443
g34
(citchat.storage.templates
MassivePlatform
p444
g39
(dp445
VUserName
p446
V@025e53fc11afe0f95307378e2a33f961
p447
sVCity
p448
V\u5e7f\u5dde
p449
sVSnsFlag
p450
I0
sVDisplayName
p451
g52
sVUniFriend
p452
I0
sVMemberCount
p453
I0
sVOwnerUin
p454
I0
sVMemberList
p455
g50
sVAlias
p456
g52
sVPYQuanPin
p457
Vgongzhongpingtaianquanzhushou
p458
sVSignature
p459
V\u63d0\u4f9b\u5fae\u4fe1\u516c\u4f17\u53f7\u767b\u5f55\u548c\u7fa4\u53d1\u7b49\u5b89\u5168\u64cd\u4f5c\uff0c\u5728\u624b\u673a\u4e0a\u67e5\u6536\u6d88\u606f\u3001\u8bc4\u8bba\u3001\u8d5e\u8d4f\uff0c\u65b0\u5efa\u7fa4\u53d1\u548c\u67e5\u770b\u7fa4\u53d1\u5386\u53f2\u3002
p460
sVRemarkPYInitial
p461
g52
sVContactFlag
p462
I3
sVUin
p463
I0
sVNickName
p464
V\u516c\u4f17\u5e73\u53f0\u5b89\u5168\u52a9\u624b
p465
sVAppAccountFlag
p466
I0
sVVerifyFlag
p467
I24
sVRemarkPYQuanPin
p468
g52
sVHeadImgUrl
p469
V/cgi-bin/mmwebwx-bin/webwxgeticon?seq=600880067&username=@025e53fc11afe0f95307378e2a33f961&skey=@crypt_bda10ae4_fc5fea500cdf45c7023d2688bbb04cd1
p470
sVKeyWord
p471
Vmph
p472
sVProvince
p473
V\u5e7f\u4e1c
p474
sVPYInitial
p475
VGZPTAQZS
p476
sVRemarkName
p477
g52
sVIsOwner
p478
I0
sVSex
p479
I0
sVStarFriend
p480
I0
sVHideInputBarFlag
p481
I0
sVChatRoomId
p482
I0
sVEncryChatRoomId
p483
g52
sVAttrStatus
p484
I98459
sVStatues
p485
I0
stp486
Rp487
I1
bag34
(g444
g39
(dp488
VUserName
p489
V@8c0c4fb8c685af7a1b7d735e37f9f265
p490
sVCity
p491
V\u897f\u57ce
p492
sVSnsFlag
p493
I0
sVDisplayName
p494
g52
sVUniFriend
p495
I0
sVMemberCount
p496
I0
sVOwnerUin
p497
I0
sVMemberList
p498
g50
sVAlias
p499
VChinaUnicom800010010
p500
sVPYQuanPin
p501
Vzhongguoliantong
p502
sVSignature
p503
V\u4e2d\u56fd\u8054\u901a\u5fae\u4fe1\u8425\u4e1a\u5385\uff0c\u4fbf\u6377\u968f\u8eab\uff0c\u67e5\u8be2\u529e\u7406\u4e00\u952e\u641e\u5b9a\uff0c\u8fd8\u6709\u5ba2\u670dMM\u8d34\u5fc3\u89e3\u5fe7\uff0c\u66f4\u591a\u8d44\u8baf\u63a8\u8350\u4e0e\u60a8\u5206\u4eab\u3002\u656c\u8bf7\u5149\u4e34\uff0c\u671f\u5f85\u60ca\u559c\uff01
p504
sVRemarkPYInitial
p505
g52
sVContactFlag
p506
I3
sVUin
p507
I0
sVNickName
p508
V\u4e2d\u56fd\u8054\u901a
p509
sVAppAccountFlag
p510
I0
sVVerifyFlag
p511
I24
sVRemarkPYQuanPin
p512
g52
sVHeadImgUrl
p513
V/cgi-bin/mmwebwx-bin/webwxgeticon?seq=603850307&username=@8c0c4fb8c685af7a1b7d735e37f9f265&skey=@crypt_bda10ae4_fc5fea500cdf45c7023d2688bbb04cd1
p514
sVKeyWord
p515
Vgh_
p516
sVProvince
p517
V\u5317\u4eac
p518
sVPYInitial
p519
VZGLT
p520
sVRemarkName
p521
g52
sVIsOwner
p522
I0
sVSex
p523
I0
sVStarFriend
p524
I0
sVHideInputBarFlag
p525
I0
sVChatRoomId
p526
I0
sVEncryChatRoomId
p527
g52
sVAttrStatus
p528
I0
sVStatues
p529
I0
stp530
Rp531
I1
batp532
Rp533
I1
bssS'loginInfo'
p534
(dp535
S'SyncKey'
p536
(dp537
VCount
p538
I4
sVList
p539
(lp540
(dp541
VVal
p542
I603851406
sVKey
p543
I1
sa(dp544
VVal
p545
I603851825
sVKey
p546
I2
sa(dp547
VVal
p548
I603851718
sVKey
p549
I3
sa(dp550
VVal
p551
I1493114221
sVKey
p552
I1000
sassS'syncUrl'
p553
S'https://webpush.wx2.qq.com/cgi-bin/mmwebwx-bin'
p554
sS'skey'
p555
V@crypt_bda10ae4_fc5fea500cdf45c7023d2688bbb04cd1
p556
sS'wxuin'
p557
V3413407412
p558
sS'synckey'
p559
S'1_603851406|2_603851825|3_603851718|1000_1493114221'
p560
sS'url'
p561
Vhttps://wx2.qq.com/cgi-bin/mmwebwx-bin
p562
sS'pass_ticket'
p563
VmQS9T1cmUGqfKs4Xm%2B39IUzPzsVmPq%2Fm4ZYuBxEhRSG0%2BhmAkYZPUsknDxC5JIfn
p564
sS'wxsid'
p565
VupO6YXqjjOGpXak4
p566
sS'User'
p567
g34
(g38
g39
(dp568
g41
g31
sg42
g43
sg44
g43
sg45
I0
sg47
g50
sg51
g52
sg53
g52
sg77
I0
sg55
I0
sg56
I0
sg57
g43
sg58
g43
sg59
g52
sg60
g52
sg61
I0
sg62
I0
sg63
I1
sg64
g43
sg65
I0
sg68
I0
sg66
I0
sg67
I0
sg46
I0
sg69
g43
sg70
g52
sg71
I0
sg72
g73
sg74
g52
sg75
g76
sg54
I3413407412
sg78
I0
sg79
I0
stp569
Rp570
I1
bsS'InviteStartCount'
p571
I40
sS'fileUrl'
p572
S'https://file.wx2.qq.com/cgi-bin/mmwebwx-bin'
p573
sS'BaseRequest'
p574
(dp575
g54
g558
sS'Skey'
p576
g556
sS'DeviceID'
p577
g564
sS'Sid'
p578
g566
ssS'deviceid'
p579
S'e679207524865822'
p580
ss.