(dp0
S'cookies'
p1
(dp2
S'wxloadtime'
p3
S'1493030451'
p4
sS'webwx_data_ticket'
p5
S'gSfwkvkxFFOqVsvKKt0HZqWo'
p6
sS'wxuin'
p7
S'3413407412'
p8
sS'login_frequency'
p9
S'2'
p10
sS'MM_WX_NOTIFY_STATE'
p11
S'1'
p12
sS'MM_WX_SOUND_STATE'
p13
g12
sS'webwx_auth_ticket'
p14
S'CIsBEMnuhn4agAFjY4q0pESskUOsFtmfQLxa4EWYQ+ZwViSHpQ19USZE2ReM4vr5TyRvwPFwt/O/oqt+GMPwvg4hf8HTd8ve8+lDkVTL4f6sG12HjEt3O2g9x4bKlvqlfbkqbOBMZnBucLEgjVhIANe8jroiiFqLETEcEU3zmT4gHh+KRoFuwIQn8Q=='
p15
sS'last_wxuin'
p16
S'3413407412'
p17
sS'webwxuvid'
p18
S'0ad038a387f4269064e4a4417f4f53ec9b6b8052500512bb6d9a9cdb70b0d5658e9a36e194c37bd189fa24c747f67b04'
p19
sS'wxpluginkey'
p20
S'1493029830'
p21
sS'wxsid'
p22
S'X4aqZwLLT904Qda2'
p23
sS'mm_lang'
p24
S'zh_CN'
p25
ssS'version'
p26
S'1.3.5'
p27
sS'storage'
p28
(dp29
S'userName'
p30
V@7576864ec80f1368e998f5a270c071e372108c30605f31f946ef3ddd6ea91ecc
p31
sS'lastInputUserName'
p32
NsS'memberList'
p33
ccopy_reg
_reconstructor
p34
(citchat.storage.templates
ContactList
p35
c__builtin__
list
p36
(lp37
g34
(citchat.storage.templates
User
p38
c__builtin__
dict
p39
(dp40
S'UserName'
p41
g31
sS'City'
p42
S''
p43
sS'DisplayName'
p44
g43
sS'UniFriend'
p45
I0
sS'OwnerUin'
p46
I0
sS'MemberList'
p47
g34
(g35
g36
(lp48
tp49
Rp50
I1
bsS'PYQuanPin'
p51
V
p52
sS'RemarkPYInitial'
p53
g52
sS'Uin'
p54
I3413407412
sS'AppAccountFlag'
p55
I0
sS'VerifyFlag'
p56
I0
sS'Province'
p57
g43
sS'KeyWord'
p58
g43
sS'RemarkName'
p59
g52
sS'PYInitial'
p60
g52
sS'ChatRoomId'
p61
I0
sS'HideInputBarFlag'
p62
I0
sVHeadImgFlag
p63
I1
sS'EncryChatRoomId'
p64
g43
sS'AttrStatus'
p65
I0
sS'SnsFlag'
p66
I0
sS'MemberCount'
p67
I0
sVWebWxPluginSwitch
p68
I0
sS'Alias'
p69
g43
sS'Signature'
p70
g52
sS'ContactFlag'
p71
I0
sS'NickName'
p72
VAran
p73
sS'RemarkPYQuanPin'
p74
g52
sS'HeadImgUrl'
p75
V/cgi-bin/mmwebwx-bin/webwxgeticon?seq=1515841893&username=@7576864ec80f1368e998f5a270c071e372108c30605f31f946ef3ddd6ea91ecc&skey=@crypt_bda10ae4_f37790892d0f90a76c81cb813746dbb2
p76
sS'Sex'
p77
I0
sS'StarFriend'
p78
I0
sS'Statues'
p79
I0
stp80
Rp81
I1
bag34
(g38
g39
(dp82
VUserName
p83
V@8b0347247353970207f63631c01596af81aa1c5eb921bfa6d0ebd8218ec9bafa
p84
sVCity
p85
V\u4e1c\u57ce
p86
sVSnsFlag
p87
I49
sVDisplayName
p88
g52
sVUniFriend
p89
I0
sVMemberCount
p90
I0
sVOwnerUin
p91
I0
sVMemberList
p92
g50
sVAlias
p93
VYe-zone
p94
sVPYQuanPin
p95
VYat3s
p96
sVSignature
p97
V\u4e00\u53ea\u7231\u73a9\u7684\u7a0b\u5e8f\u6c6a<span class="emoji emoji1f436"></span>
p98
sVRemarkPYInitial
p99
g52
sVContactFlag
p100
I3
sVUin
p101
I0
sVNickName
p102
VYat3s
p103
sVAppAccountFlag
p104
I0
sVVerifyFlag
p105
I0
sVRemarkPYQuanPin
p106
g52
sVHeadImgUrl
p107
V/cgi-bin/mmwebwx-bin/webwxgeticon?seq=603850332&username=@8b0347247353970207f63631c01596af81aa1c5eb921bfa6d0ebd8218ec9bafa&skey=@crypt_bda10ae4_f37790892d0f90a76c81cb813746dbb2
p108
sVKeyWord
p109
g52
sVProvince
p110
V\u5317\u4eac
p111
sVPYInitial
p112
VYAT3S
p113
sVRemarkName
p114
g52
sVIsOwner
p115
I0
sVSex
p116
I1
sVStarFriend
p117
I0
sVHideInputBarFlag
p118
I0
sVChatRoomId
p119
I0
sVEncryChatRoomId
p120
g52
sVAttrStatus
p121
I37851239
sVStatues
p122
I0
stp123
Rp124
I1
bag34
(g38
g39
(dp125
VUserName
p126
V@d7bf42ba49d5da7ebc764ad147503e595d537ad8b9f74b5681d059cbd8bca5ea
p127
sVCity
p128
g52
sVSnsFlag
p129
I17
sVDisplayName
p130
g52
sVUniFriend
p131
I0
sVMemberCount
p132
I0
sVOwnerUin
p133
I0
sVMemberList
p134
g50
sVAlias
p135
VYihoney_
p136
sVPYQuanPin
p137
Vspanclassemojiemoji1f33espancaoyispanclassemojiemoji1f33espan
p138
sVSignature
p139
V\u6709\u82b1\u6709\u6708\u6709\u697c\u53f0 \u4e0d\u98ce\u6d41\u5904\u4e5f\u98ce\u6d41
p140
sVRemarkPYInitial
p141
g52
sVContactFlag
p142
I3
sVUin
p143
I0
sVNickName
p144
V\U0001f33e\u8349\u4e59\U0001f33e
p145
sVAppAccountFlag
p146
I0
sVVerifyFlag
p147
I0
sVRemarkPYQuanPin
p148
g52
sVHeadImgUrl
p149
V/cgi-bin/mmwebwx-bin/webwxgeticon?seq=603850966&username=@d7bf42ba49d5da7ebc764ad147503e595d537ad8b9f74b5681d059cbd8bca5ea&skey=@crypt_bda10ae4_f37790892d0f90a76c81cb813746dbb2
p150
sVKeyWord
p151
g52
sVProvince
p152
g52
sVPYInitial
p153
VSPANCLASSEMOJIEMOJI1F33ESPANCYSPANCLASSEMOJIEMOJI1F33ESPAN
p154
sVRemarkName
p155
g52
sVIsOwner
p156
I0
sVSex
p157
I2
sVStarFriend
p158
I0
sVHideInputBarFlag
p159
I0
sVChatRoomId
p160
I0
sVEncryChatRoomId
p161
g52
sVAttrStatus
p162
I33785893
sVStatues
p163
I0
stp164
Rp165
I1
bag34
(g38
g39
(dp166
VUserName
p167
V@5e2fd521a7b1c64ed717d47f70dbc2c0
p168
sVCity
p169
V\u8475\u9752\u533a
p170
sVSnsFlag
p171
I49
sVDisplayName
p172
g52
sVUniFriend
p173
I0
sVMemberCount
p174
I0
sVOwnerUin
p175
I0
sVMemberList
p176
g50
sVAlias
p177
g52
sVPYQuanPin
p178
Vspanclassemojiemoji1f335spanyezhier
p179
sVSignature
p180
V\u65f6\u5149\u6f2b\u957f\uff0c\u6709\u6211\u522b\u614c\u3002<span class="emoji emoji1f618"></span>
p181
sVRemarkPYInitial
p182
g52
sVContactFlag
p183
I3
sVUin
p184
I0
sVNickName
p185
V\U0001f335\u6930\u6c41\u513f
p186
sVAppAccountFlag
p187
I0
sVVerifyFlag
p188
I0
sVRemarkPYQuanPin
p189
g52
sVHeadImgUrl
p190
V/cgi-bin/mmwebwx-bin/webwxgeticon?seq=603850968&username=@5e2fd521a7b1c64ed717d47f70dbc2c0&skey=@crypt_bda10ae4_f37790892d0f90a76c81cb813746dbb2
p191
sVKeyWord
p192
Vyev
p193
sVProvince
p194
V\u9999\u6e2f
p195
sVPYInitial
p196
VSPANCLASSEMOJIEMOJI1F335SPANYZE
p197
sVRemarkName
p198
g52
sVIsOwner
p199
I0
sVSex
p200
I2
sVStarFriend
p201
I0
sVHideInputBarFlag
p202
I0
sVChatRoomId
p203
I0
sVEncryChatRoomId
p204
g52
sVAttrStatus
p205
I67623
sVStatues
p206
I0
stp207
Rp208
I1
bag34
(g38
g39
(dp209
VUserName
p210
V@19d2a2b130519ac0bcfcbfe6a4f0d6ac9ff38226730007a558fba4aa465a991a
p211
sVCity
p212
V\u671d\u9633
p213
sVSnsFlag
p214
I17
sVDisplayName
p215
g52
sVUniFriend
p216
I0
sVMemberCount
p217
I0
sVOwnerUin
p218
I0
sVMemberList
p219
g50
sVAlias
p220
Vmy_cheese92
p221
sVPYQuanPin
p222
VKerry
p223
sVSignature
p224
V\u4ee5\u68a6\u4e3a\u9a6c\uff0c\u4e0d\u8d1f\u97f6\u534e
p225
sVRemarkPYInitial
p226
g52
sVContactFlag
p227
I3
sVUin
p228
I0
sVNickName
p229
VKerry
p230
sVAppAccountFlag
p231
I0
sVVerifyFlag
p232
I0
sVRemarkPYQuanPin
p233
g52
sVHeadImgUrl
p234
V/cgi-bin/mmwebwx-bin/webwxgeticon?seq=603850763&username=@19d2a2b130519ac0bcfcbfe6a4f0d6ac9ff38226730007a558fba4aa465a991a&skey=@crypt_bda10ae4_f37790892d0f90a76c81cb813746dbb2
p235
sVKeyWord
p236
g52
sVProvince
p237
V\u5317\u4eac
p238
sVPYInitial
p239
VKERRY
p240
sVRemarkName
p241
g52
sVIsOwner
p242
I0
sVSex
p243
I2
sVStarFriend
p244
I0
sVHideInputBarFlag
p245
I0
sVChatRoomId
p246
I0
sVEncryChatRoomId
p247
g52
sVAttrStatus
p248
I33674359
sVStatues
p249
I0
stp250
Rp251
I1
bag34
(g38
g39
(dp252
VUserName
p253
V@73bc471a359ae035c63b7792668b21026defb7057218559b2528c38f843be786
p254
sVCity
p255
V\u8d63\u5dde
p256
sVSnsFlag
p257
I49
sVDisplayName
p258
g52
sVUniFriend
p259
I0
sVMemberCount
p260
I0
sVOwnerUin
p261
I0
sVMemberList
p262
g50
sVAlias
p263
VElain1025
p264
sVPYQuanPin
p265
Vxiaoliao15807504515
p266
sVSignature
p267
V\u4e0b\u8f88\u5b50\u6295\u80ce\u505a\u4e2a\u7537\u4eba\uff0c\u5a36\u4e2a\u50cf\u6211\u8fd9\u6837\u7684\u5973\u4eba\U0001f64815807504515
p268
sVRemarkPYInitial
p269
VELAINE
p270
sVContactFlag
p271
I3
sVUin
p272
I0
sVNickName
p273
V\u5c0f\u5ed6 15807504515
p274
sVAppAccountFlag
p275
I0
sVVerifyFlag
p276
I0
sVRemarkPYQuanPin
p277
VElaine
p278
sVHeadImgUrl
p279
V/cgi-bin/mmwebwx-bin/webwxgeticon?seq=603850127&username=@73bc471a359ae035c63b7792668b21026defb7057218559b2528c38f843be786&skey=@crypt_bda10ae4_f37790892d0f90a76c81cb813746dbb2
p280
sVKeyWord
p281
g52
sVProvince
p282
V\u6c5f\u897f
p283
sVPYInitial
p284
VXL15807504515
p285
sVRemarkName
p286
VElaine
p287
sVIsOwner
p288
I0
sVSex
p289
I2
sVStarFriend
p290
I0
sVHideInputBarFlag
p291
I0
sVChatRoomId
p292
I0
sVEncryChatRoomId
p293
g52
sVAttrStatus
p294
I69669
sVStatues
p295
I0
stp296
Rp297
I1
batp298
Rp299
I1
bsS'chatroomList'
p300
g34
(g35
g36
(lp301
g34
(citchat.storage.templates
Chatroom
p302
g39
(dp303
VUserName
p304
V@@bc61469673e98f04ab34724c68c5ee844beb1d702b1b21363dd9b58d4fd77994
p305
sVCity
p306
g52
sVDisplayName
p307
g52
sVUniFriend
p308
I0
sS'Self'
p309
g34
(g38
g39
(dp310
g41
g31
sg42
g43
sg44
g43
sg45
I0
sg46
I0
sg47
g34
(g35
g36
(lp311
tp312
Rp313
I1
bsg51
g52
sg53
g52
sg54
I3413407412
sg55
I0
sg56
I0
sg57
g43
sg58
g43
sg59
g52
sg60
g52
sg61
I0
sg62
I0
sg63
I1
sg64
g43
sg65
I0
sg66
I0
sg67
I0
sg68
I0
sg69
g43
sg70
g52
sg71
I0
sg72
g73
sg74
g52
sg75
g76
sg77
I0
sg78
I0
sg79
I0
stp314
Rp315
I1
bsVMemberList
p316
g34
(g35
g36
(lp317
tp318
Rp319
I1
bsVPYQuanPin
p320
g52
sVRemarkPYInitial
p321
g52
sVSex
p322
I0
sVAppAccountFlag
p323
I0
sVVerifyFlag
p324
I0
sVProvince
p325
g52
sVKeyWord
p326
g52
sVRemarkName
p327
g52
sVPYInitial
p328
g52
sVIsOwner
p329
I0
sVChatRoomId
p330
I0
sVHideInputBarFlag
p331
I0
sVEncryChatRoomId
p332
g52
sVAttrStatus
p333
I0
sVSnsFlag
p334
I0
sVMemberCount
p335
I8
sVOwnerUin
p336
I0
sVAlias
p337
g52
sS'IsAdmin'
p338
NsVSignature
p339
g52
sVContactFlag
p340
I2
sVNickName
p341
V\u7ea2\u5305\u96e8
p342
sVRemarkPYQuanPin
p343
g52
sVHeadImgUrl
p344
V/cgi-bin/mmwebwx-bin/webwxgetheadimg?seq=603850892&username=@@bc61469673e98f04ab34724c68c5ee844beb1d702b1b21363dd9b58d4fd77994&skey=@crypt_bda10ae4_f37790892d0f90a76c81cb813746dbb2
p345
sVUin
p346
I0
sVStarFriend
p347
I0
sVStatues
p348
I1
stp349
Rp350
I1
bag34
(g302
g39
(dp351
VUserName
p352
V@@facd71f0ec021e59ab6ae122a461c3d5ff3dca8ceee7500cedd922c66ad4ee3a
p353
sVCity
p354
g52
sVDisplayName
p355
g52
sVUniFriend
p356
I0
sg309
g34
(g38
g39
(dp357
g41
g31
sg42
g43
sg44
g43
sg45
I0
sg46
I0
sg47
g34
(g35
g36
(lp358
tp359
Rp360
I1
bsg51
g52
sg53
g52
sg54
I3413407412
sg55
I0
sg56
I0
sg57
g43
sg58
g43
sg59
g52
sg60
g52
sg61
I0
sg62
I0
sg63
I1
sg64
g43
sg65
I0
sg66
I0
sg67
I0
sg68
I0
sg69
g43
sg70
g52
sg71
I0
sg72
g73
sg74
g52
sg75
g76
sg77
I0
sg78
I0
sg79
I0
stp361
Rp362
I1
bsVMemberList
p363
g34
(g35
g36
(lp364
tp365
Rp366
I1
bsVPYQuanPin
p367
g52
sVRemarkPYInitial
p368
g52
sVSex
p369
I0
sVAppAccountFlag
p370
I0
sVVerifyFlag
p371
I0
sVProvince
p372
g52
sVKeyWord
p373
g52
sVRemarkName
p374
g52
sVPYInitial
p375
g52
sVIsOwner
p376
I0
sVChatRoomId
p377
I0
sVHideInputBarFlag
p378
I0
sVEncryChatRoomId
p379
g52
sVAttrStatus
p380
I0
sVSnsFlag
p381
I0
sVMemberCount
p382
I3
sVOwnerUin
p383
I0
sVAlias
p384
g52
sg338
NsVSignature
p385
g52
sVContactFlag
p386
I0
sVNickName
p387
V\u7a0b\u5e8f\u733f\u7684\u4eba\u5de5\u667a\u80fd\u5973\u53cb
p388
sVRemarkPYQuanPin
p389
g52
sVHeadImgUrl
p390
V/cgi-bin/mmwebwx-bin/webwxgetheadimg?seq=0&username=@@facd71f0ec021e59ab6ae122a461c3d5ff3dca8ceee7500cedd922c66ad4ee3a&skey=@crypt_bda10ae4_f37790892d0f90a76c81cb813746dbb2
p391
sVUin
p392
I0
sVStarFriend
p393
I0
sVStatues
p394
I1
stp395
Rp396
I1
bag34
(g302
g39
(dp397
VUserName
p398
V@@73ac1305af42671cd64a9f4e88af3691a57f7c5ce9c4837dc4ac73398bd9b434
p399
sVCity
p400
g52
sVDisplayName
p401
g52
sVUniFriend
p402
I0
sg309
g34
(g38
g39
(dp403
g41
g31
sg42
g43
sg44
g43
sg45
I0
sg46
I0
sg47
g34
(g35
g36
(lp404
tp405
Rp406
I1
bsg51
g52
sg53
g52
sg54
I3413407412
sg55
I0
sg56
I0
sg57
g43
sg58
g43
sg59
g52
sg60
g52
sg61
I0
sg62
I0
sg63
I1
sg64
g43
sg65
I0
sg66
I0
sg67
I0
sg68
I0
sg69
g43
sg70
g52
sg71
I0
sg72
g73
sg74
g52
sg75
g76
sg77
I0
sg78
I0
sg79
I0
stp407
Rp408
I1
bsVMemberList
p409
g34
(g35
g36
(lp410
tp411
Rp412
I1
bsVPYQuanPin
p413
g52
sVRemarkPYInitial
p414
g52
sVSex
p415
I0
sVAppAccountFlag
p416
I0
sVVerifyFlag
p417
I0
sVProvince
p418
g52
sVKeyWord
p419
g52
sVRemarkName
p420
g52
sVPYInitial
p421
g52
sVIsOwner
p422
I0
sVChatRoomId
p423
I0
sVHideInputBarFlag
p424
I0
sVEncryChatRoomId
p425
g52
sVAttrStatus
p426
I0
sVSnsFlag
p427
I0
sVMemberCount
p428
I3
sVOwnerUin
p429
I0
sVAlias
p430
g52
sg338
NsVSignature
p431
g52
sVContactFlag
p432
I0
sVNickName
p433
VYat3s,Kerry,Aran
p434
sVRemarkPYQuanPin
p435
g52
sVHeadImgUrl
p436
V/cgi-bin/mmwebwx-bin/webwxgetheadimg?seq=0&username=@@73ac1305af42671cd64a9f4e88af3691a57f7c5ce9c4837dc4ac73398bd9b434&skey=@crypt_bda10ae4_f37790892d0f90a76c81cb813746dbb2
p437
sVUin
p438
I0
sVStarFriend
p439
I0
sVStatues
p440
I1
stp441
Rp442
I1
bag34
(g302
g39
(dp443
VUserName
p444
V@@40287ba481b1579e23981762b1ce44bd8f872ea95536d833a83f573174f5968e
p445
sVCity
p446
g52
sVDisplayName
p447
g52
sVUniFriend
p448
I0
sg309
g34
(g38
g39
(dp449
g41
g31
sg42
g43
sg44
g43
sg45
I0
sg46
I0
sg47
g34
(g35
g36
(lp450
tp451
Rp452
I1
bsg51
g52
sg53
g52
sg54
I3413407412
sg55
I0
sg56
I0
sg57
g43
sg58
g43
sg59
g52
sg60
g52
sg61
I0
sg62
I0
sg63
I1
sg64
g43
sg65
I0
sg66
I0
sg67
I0
sg68
I0
sg69
g43
sg70
g52
sg71
I0
sg72
g73
sg74
g52
sg75
g76
sg77
I0
sg78
I0
sg79
I0
stp453
Rp454
I1
bsVMemberList
p455
g34
(g35
g36
(lp456
tp457
Rp458
I1
bsVPYQuanPin
p459
g52
sVRemarkPYInitial
p460
g52
sVSex
p461
I0
sVAppAccountFlag
p462
I0
sVVerifyFlag
p463
I0
sVProvince
p464
g52
sVKeyWord
p465
g52
sVRemarkName
p466
g52
sVPYInitial
p467
g52
sVIsOwner
p468
I0
sVChatRoomId
p469
I0
sVHideInputBarFlag
p470
I0
sVEncryChatRoomId
p471
g52
sVAttrStatus
p472
I0
sVSnsFlag
p473
I0
sVMemberCount
p474
I3
sVOwnerUin
p475
I0
sVAlias
p476
g52
sg338
NsVSignature
p477
g52
sVContactFlag
p478
I0
sVNickName
p479
VTsui.,Yat3s,Aran
p480
sVRemarkPYQuanPin
p481
g52
sVHeadImgUrl
p482
V/cgi-bin/mmwebwx-bin/webwxgetheadimg?seq=0&username=@@40287ba481b1579e23981762b1ce44bd8f872ea95536d833a83f573174f5968e&skey=@crypt_bda10ae4_f37790892d0f90a76c81cb813746dbb2
p483
sVUin
p484
I0
sVStarFriend
p485
I0
sVStatues
p486
I1
stp487
Rp488
I1
batp489
Rp490
I1
bsS'nickName'
p491
g73
sS'mpList'
p492
g34
(g35
g36
(lp493
g34
(citchat.storage.templates
MassivePlatform
p494
g39
(dp495
VUserName
p496
V@76712f4c323240269b5b5372cac4701f
p497
sVCity
p498
V\u5e7f\u5dde
p499
sVSnsFlag
p500
I0
sVDisplayName
p501
g52
sVUniFriend
p502
I0
sVMemberCount
p503
I0
sVOwnerUin
p504
I0
sVMemberList
p505
g50
sVAlias
p506
g52
sVPYQuanPin
p507
Vgongzhongpingtaianquanzhushou
p508
sVSignature
p509
V\u63d0\u4f9b\u5fae\u4fe1\u516c\u4f17\u53f7\u767b\u5f55\u548c\u7fa4\u53d1\u7b49\u5b89\u5168\u64cd\u4f5c\uff0c\u5728\u624b\u673a\u4e0a\u67e5\u6536\u6d88\u606f\u3001\u8bc4\u8bba\u3001\u8d5e\u8d4f\uff0c\u65b0\u5efa\u7fa4\u53d1\u548c\u67e5\u770b\u7fa4\u53d1\u5386\u53f2\u3002
p510
sVRemarkPYInitial
p511
g52
sVContactFlag
p512
I3
sVUin
p513
I0
sVNickName
p514
V\u516c\u4f17\u5e73\u53f0\u5b89\u5168\u52a9\u624b
p515
sVAppAccountFlag
p516
I0
sVVerifyFlag
p517
I24
sVRemarkPYQuanPin
p518
g52
sVHeadImgUrl
p519
V/cgi-bin/mmwebwx-bin/webwxgeticon?seq=600880067&username=@76712f4c323240269b5b5372cac4701f&skey=@crypt_bda10ae4_f37790892d0f90a76c81cb813746dbb2
p520
sVKeyWord
p521
Vmph
p522
sVProvince
p523
V\u5e7f\u4e1c
p524
sVPYInitial
p525
VGZPTAQZS
p526
sVRemarkName
p527
g52
sVIsOwner
p528
I0
sVSex
p529
I0
sVStarFriend
p530
I0
sVHideInputBarFlag
p531
I0
sVChatRoomId
p532
I0
sVEncryChatRoomId
p533
g52
sVAttrStatus
p534
I98459
sVStatues
p535
I0
stp536
Rp537
I1
bag34
(g494
g39
(dp538
VUserName
p539
V@a209b46cfb0b2ba5e435b783fbfd4484
p540
sVCity
p541
V\u897f\u57ce
p542
sVSnsFlag
p543
I0
sVDisplayName
p544
g52
sVUniFriend
p545
I0
sVMemberCount
p546
I0
sVOwnerUin
p547
I0
sVMemberList
p548
g50
sVAlias
p549
VChinaUnicom800010010
p550
sVPYQuanPin
p551
Vzhongguoliantong
p552
sVSignature
p553
V\u4e2d\u56fd\u8054\u901a\u5fae\u4fe1\u8425\u4e1a\u5385\uff0c\u4fbf\u6377\u968f\u8eab\uff0c\u67e5\u8be2\u529e\u7406\u4e00\u952e\u641e\u5b9a\uff0c\u8fd8\u6709\u5ba2\u670dMM\u8d34\u5fc3\u89e3\u5fe7\uff0c\u66f4\u591a\u8d44\u8baf\u63a8\u8350\u4e0e\u60a8\u5206\u4eab\u3002\u656c\u8bf7\u5149\u4e34\uff0c\u671f\u5f85\u60ca\u559c\uff01
p554
sVRemarkPYInitial
p555
g52
sVContactFlag
p556
I3
sVUin
p557
I0
sVNickName
p558
V\u4e2d\u56fd\u8054\u901a
p559
sVAppAccountFlag
p560
I0
sVVerifyFlag
p561
I24
sVRemarkPYQuanPin
p562
g52
sVHeadImgUrl
p563
V/cgi-bin/mmwebwx-bin/webwxgeticon?seq=603850307&username=@a209b46cfb0b2ba5e435b783fbfd4484&skey=@crypt_bda10ae4_f37790892d0f90a76c81cb813746dbb2
p564
sVKeyWord
p565
Vgh_
p566
sVProvince
p567
V\u5317\u4eac
p568
sVPYInitial
p569
VZGLT
p570
sVRemarkName
p571
g52
sVIsOwner
p572
I0
sVSex
p573
I0
sVStarFriend
p574
I0
sVHideInputBarFlag
p575
I0
sVChatRoomId
p576
I0
sVEncryChatRoomId
p577
g52
sVAttrStatus
p578
I0
sVStatues
p579
I0
stp580
Rp581
I1
batp582
Rp583
I1
bssS'loginInfo'
p584
(dp585
S'SyncKey'
p586
(dp587
VCount
p588
I4
sVList
p589
(lp590
(dp591
VVal
p592
I603850761
sVKey
p593
I1
sa(dp594
VVal
p595
I603851022
sVKey
p596
I2
sa(dp597
VVal
p598
I603850968
sVKey
p599
I3
sa(dp600
VVal
p601
I1493029830
sVKey
p602
I1000
sassS'syncUrl'
p603
S'https://webpush.wx2.qq.com/cgi-bin/mmwebwx-bin'
p604
sS'skey'
p605
V@crypt_bda10ae4_f37790892d0f90a76c81cb813746dbb2
p606
sS'wxuin'
p607
V3413407412
p608
sS'synckey'
p609
S'1_603850761|2_603851022|3_603850968|1000_1493029830'
p610
sS'url'
p611
Vhttps://wx2.qq.com/cgi-bin/mmwebwx-bin
p612
sS'pass_ticket'
p613
VVQmwK6552S1Kv5UOZSLrZpH%2FyzZRYOqPJA5u4KCyp5ela3KsAEcPJz%2Fj0PSo9FQE
p614
sS'wxsid'
p615
VX4aqZwLLT904Qda2
p616
sS'User'
p617
g34
(g38
g39
(dp618
g41
g31
sg42
g43
sg44
g43
sg45
I0
sg47
g50
sg51
g52
sg53
g52
sg77
I0
sg55
I0
sg56
I0
sg57
g43
sg58
g43
sg59
g52
sg60
g52
sg61
I0
sg62
I0
sg63
I1
sg64
g43
sg65
I0
sg68
I0
sg66
I0
sg67
I0
sg46
I0
sg69
g43
sg70
g52
sg71
I0
sg72
g73
sg74
g52
sg75
g76
sg54
I3413407412
sg78
I0
sg79
I0
stp619
Rp620
I1
bsS'InviteStartCount'
p621
I40
sS'fileUrl'
p622
S'https://file.wx2.qq.com/cgi-bin/mmwebwx-bin'
p623
sS'BaseRequest'
p624
(dp625
g54
g608
sS'Skey'
p626
g606
sS'DeviceID'
p627
g614
sS'Sid'
p628
g616
ssS'deviceid'
p629
S'e369121877078249'
p630
ss.