(dp0
S'cookies'
p1
(dp2
S'wxloadtime'
p3
S'1493205652'
p4
sS'webwx_data_ticket'
p5
S'gSf3RLbLk7cpGEzwvUt3UPhi'
p6
sS'wxuin'
p7
S'3413407412'
p8
sS'login_frequency'
p9
S'2'
p10
sS'MM_WX_NOTIFY_STATE'
p11
S'1'
p12
sS'MM_WX_SOUND_STATE'
p13
g12
sS'webwx_auth_ticket'
p14
S'CIsBELPj5pUGGoABKjgMZgGOi+96wjgTZCUzIeBFmEPmcFYkh6UNfVEmRNmFOb3logmcgrIDBqK+TxThDpb7/IgPm3o2b6FBHswdgc/ivWsrabBfV68kB0fCk67NA6Zc30t/ts5Gj57SJePmAQga1OlVJ3f5q58df6W37xFN85k+IB4fikaBbsCEJ/E='
p15
sS'last_wxuin'
p16
S'3413407412'
p17
sS'webwxuvid'
p18
S'0ad038a387f4269064e4a4417f4f53ec4ba09bc37f4701209a4da3a50b6aec896a69993b6d7c2be70829c938fc402626'
p19
sS'wxpluginkey'
p20
S'1493198905'
p21
sS'wxsid'
p22
S'A2DMXtl+dyd6ozG+'
p23
sS'mm_lang'
p24
S'zh_CN'
p25
ssS'version'
p26
S'1.3.5'
p27
sS'storage'
p28
(dp29
S'userName'
p30
V@ad0e68ee6d2d2df330e6a6086ad1e0aed4a2dc82b51a28e017df2fec22a27613
p31
sS'lastInputUserName'
p32
NsS'memberList'
p33
ccopy_reg
_reconstructor
p34
(cchatcore.storage.templates
ContactList
p35
c__builtin__
list
p36
(lp37
g34
(cchatcore.storage.templates
User
p38
c__builtin__
dict
p39
(dp40
S'UserName'
p41
g31
sS'City'
p42
S''
p43
sS'DisplayName'
p44
g43
sS'UniFriend'
p45
I0
sS'OwnerUin'
p46
I0
sS'MemberList'
p47
g34
(g35
g36
(lp48
tp49
Rp50
I1
bsS'PYQuanPin'
p51
V
p52
sS'RemarkPYInitial'
p53
g52
sS'Uin'
p54
I3413407412
sS'AppAccountFlag'
p55
I0
sS'VerifyFlag'
p56
I0
sS'Province'
p57
g43
sS'KeyWord'
p58
g43
sS'RemarkName'
p59
g52
sS'PYInitial'
p60
g52
sS'ChatRoomId'
p61
I0
sS'HideInputBarFlag'
p62
I0
sVHeadImgFlag
p63
I1
sS'EncryChatRoomId'
p64
g43
sS'AttrStatus'
p65
I0
sS'SnsFlag'
p66
I0
sS'MemberCount'
p67
I0
sVWebWxPluginSwitch
p68
I0
sS'Alias'
p69
g43
sS'Signature'
p70
g52
sS'ContactFlag'
p71
I0
sS'NickName'
p72
VAran
p73
sS'RemarkPYQuanPin'
p74
g52
sS'HeadImgUrl'
p75
V/cgi-bin/mmwebwx-bin/webwxgeticon?seq=483665980&username=@ad0e68ee6d2d2df330e6a6086ad1e0aed4a2dc82b51a28e017df2fec22a27613&skey=@crypt_bda10ae4_4c3dddd8a156bec58839adc0f303773e
p76
sS'Sex'
p77
I0
sS'StarFriend'
p78
I0
sS'Statues'
p79
I0
stp80
Rp81
I1
bag34
(g38
g39
(dp82
VUserName
p83
V@ba90ce1bdac21e41dd3ba538acc00cdf638c2651e54bbb909c5f85afb12c5524
p84
sVCity
p85
V\u4e1c\u57ce
p86
sVSnsFlag
p87
I49
sVDisplayName
p88
g52
sVUniFriend
p89
I0
sVMemberCount
p90
I0
sVOwnerUin
p91
I0
sVMemberList
p92
g50
sVAlias
p93
VYe-zone
p94
sVPYQuanPin
p95
VYat3s
p96
sVSignature
p97
V\u4e00\u53ea\u7231\u73a9\u7684\u7a0b\u5e8f\u6c6a<span class="emoji emoji1f436"></span>
p98
sVRemarkPYInitial
p99
g52
sVContactFlag
p100
I3
sVUin
p101
I0
sVNickName
p102
VYat3s
p103
sVAppAccountFlag
p104
I0
sVVerifyFlag
p105
I0
sVRemarkPYQuanPin
p106
g52
sVHeadImgUrl
p107
V/cgi-bin/mmwebwx-bin/webwxgeticon?seq=603850332&username=@ba90ce1bdac21e41dd3ba538acc00cdf638c2651e54bbb909c5f85afb12c5524&skey=@crypt_bda10ae4_4c3dddd8a156bec58839adc0f303773e
p108
sVKeyWord
p109
g52
sVProvince
p110
V\u5317\u4eac
p111
sVPYInitial
p112
VYAT3S
p113
sVRemarkName
p114
g52
sVIsOwner
p115
I0
sVSex
p116
I1
sVStarFriend
p117
I0
sVHideInputBarFlag
p118
I0
sVChatRoomId
p119
I0
sVEncryChatRoomId
p120
g52
sVAttrStatus
p121
I37851239
sVStatues
p122
I0
stp123
Rp124
I1
bag34
(g38
g39
(dp125
VUserName
p126
V@6cef5d5897e5bb3390a7cfdb8553ca03ba10c9141f15abdc0f7a1bcba5c9694f
p127
sVCity
p128
g52
sVSnsFlag
p129
I49
sVDisplayName
p130
g52
sVUniFriend
p131
I0
sVMemberCount
p132
I0
sVOwnerUin
p133
I0
sVMemberList
p134
g50
sVAlias
p135
Vecholee1991
p136
sVPYQuanPin
p137
Vechoxiaomeng
p138
sVSignature
p139
V\u65e2\u7136\u7434\u745f\u8d77
p140
sVRemarkPYInitial
p141
g52
sVContactFlag
p142
I3
sVUin
p143
I0
sVNickName
p144
Vecho\u5c0f\u840c
p145
sVAppAccountFlag
p146
I0
sVVerifyFlag
p147
I0
sVRemarkPYQuanPin
p148
g52
sVHeadImgUrl
p149
V/cgi-bin/mmwebwx-bin/webwxgeticon?seq=603851910&username=@6cef5d5897e5bb3390a7cfdb8553ca03ba10c9141f15abdc0f7a1bcba5c9694f&skey=@crypt_bda10ae4_4c3dddd8a156bec58839adc0f303773e
p150
sVKeyWord
p151
g52
sVProvince
p152
V\u5317\u4eac
p153
sVPYInitial
p154
VECHOXM
p155
sVRemarkName
p156
g52
sVIsOwner
p157
I0
sVSex
p158
I2
sVStarFriend
p159
I0
sVHideInputBarFlag
p160
I0
sVChatRoomId
p161
I0
sVEncryChatRoomId
p162
g52
sVAttrStatus
p163
I67224677
sVStatues
p164
I0
stp165
Rp166
I1
bag34
(g38
g39
(dp167
VUserName
p168
V@0f7ea6af97ca96ae41ce98d10ea1121290a63ac8dfa4a0a1efdc6a73fe46618a
p169
sVCity
p170
g52
sVSnsFlag
p171
I17
sVDisplayName
p172
g52
sVUniFriend
p173
I0
sVMemberCount
p174
I0
sVOwnerUin
p175
I0
sVMemberList
p176
g50
sVAlias
p177
VJava2048
p178
sVPYQuanPin
p179
Vxiaodeqiu
p180
sVSignature
p181
V\u5b66\u800c\u4e0d\u601d\u5219\u7f54\uff0c\u54c8\u54c8
p182
sVRemarkPYInitial
p183
g52
sVContactFlag
p184
I3
sVUin
p185
I0
sVNickName
p186
V\u5c0f\u5730\u7403
p187
sVAppAccountFlag
p188
I0
sVVerifyFlag
p189
I0
sVRemarkPYQuanPin
p190
g52
sVHeadImgUrl
p191
V/cgi-bin/mmwebwx-bin/webwxgeticon?seq=603851078&username=@0f7ea6af97ca96ae41ce98d10ea1121290a63ac8dfa4a0a1efdc6a73fe46618a&skey=@crypt_bda10ae4_4c3dddd8a156bec58839adc0f303773e
p192
sVKeyWord
p193
g52
sVProvince
p194
VFrankfurt
p195
sVPYInitial
p196
VXDQ
p197
sVRemarkName
p198
g52
sVIsOwner
p199
I0
sVSex
p200
I1
sVStarFriend
p201
I0
sVHideInputBarFlag
p202
I0
sVChatRoomId
p203
I0
sVEncryChatRoomId
p204
g52
sVAttrStatus
p205
I33789989
sVStatues
p206
I0
stp207
Rp208
I1
bag34
(g38
g39
(dp209
VUserName
p210
V@48b4905f702ec61729dafbeb4eafa4e95e3cb02033c1b386cf16517f3b5cb919
p211
sVCity
p212
V\u8d63\u5dde
p213
sVSnsFlag
p214
I49
sVDisplayName
p215
g52
sVUniFriend
p216
I0
sVMemberCount
p217
I0
sVOwnerUin
p218
I0
sVMemberList
p219
g50
sVAlias
p220
VElain1025
p221
sVPYQuanPin
p222
Vxiaoliao15807504515
p223
sVSignature
p224
V\u4e0b\u8f88\u5b50\u6295\u80ce\u505a\u4e2a\u7537\u4eba\uff0c\u5a36\u4e2a\u50cf\u6211\u8fd9\u6837\u7684\u5973\u4eba\U0001f64815807504515
p225
sVRemarkPYInitial
p226
VELAINE
p227
sVContactFlag
p228
I3
sVUin
p229
I0
sVNickName
p230
V\u5c0f\u5ed6 15807504515
p231
sVAppAccountFlag
p232
I0
sVVerifyFlag
p233
I0
sVRemarkPYQuanPin
p234
VElaine
p235
sVHeadImgUrl
p236
V/cgi-bin/mmwebwx-bin/webwxgeticon?seq=603850127&username=@48b4905f702ec61729dafbeb4eafa4e95e3cb02033c1b386cf16517f3b5cb919&skey=@crypt_bda10ae4_4c3dddd8a156bec58839adc0f303773e
p237
sVKeyWord
p238
g52
sVProvince
p239
V\u6c5f\u897f
p240
sVPYInitial
p241
VXL15807504515
p242
sVRemarkName
p243
VElaine
p244
sVIsOwner
p245
I0
sVSex
p246
I2
sVStarFriend
p247
I0
sVHideInputBarFlag
p248
I0
sVChatRoomId
p249
I0
sVEncryChatRoomId
p250
g52
sVAttrStatus
p251
I69669
sVStatues
p252
I0
stp253
Rp254
I1
bag34
(g38
g39
(dp255
VUserName
p256
V@72dfdebf04f3e23b8bee2432604456d59a3b601c0576ae40022772adbc610832
p257
sVCity
p258
V\u671d\u9633
p259
sVSnsFlag
p260
I17
sVDisplayName
p261
g52
sVUniFriend
p262
I0
sVMemberCount
p263
I0
sVOwnerUin
p264
I0
sVMemberList
p265
g50
sVAlias
p266
Vmy_cheese92
p267
sVPYQuanPin
p268
VKerry
p269
sVSignature
p270
V\u4ee5\u68a6\u4e3a\u9a6c\uff0c\u4e0d\u8d1f\u97f6\u534e
p271
sVRemarkPYInitial
p272
g52
sVContactFlag
p273
I3
sVUin
p274
I0
sVNickName
p275
VKerry
p276
sVAppAccountFlag
p277
I0
sVVerifyFlag
p278
I0
sVRemarkPYQuanPin
p279
g52
sVHeadImgUrl
p280
V/cgi-bin/mmwebwx-bin/webwxgeticon?seq=603850763&username=@72dfdebf04f3e23b8bee2432604456d59a3b601c0576ae40022772adbc610832&skey=@crypt_bda10ae4_4c3dddd8a156bec58839adc0f303773e
p281
sVKeyWord
p282
g52
sVProvince
p283
V\u5317\u4eac
p284
sVPYInitial
p285
VKERRY
p286
sVRemarkName
p287
g52
sVIsOwner
p288
I0
sVSex
p289
I2
sVStarFriend
p290
I0
sVHideInputBarFlag
p291
I0
sVChatRoomId
p292
I0
sVEncryChatRoomId
p293
g52
sVAttrStatus
p294
I33674359
sVStatues
p295
I0
stp296
Rp297
I1
bag34
(g38
g39
(dp298
VUserName
p299
V@1d41db4238f3e80ff0c64ddaa6f9abbe68290873a4aacb709da3909626ef1705
p300
sVCity
p301
g52
sVSnsFlag
p302
I17
sVDisplayName
p303
g52
sVUniFriend
p304
I0
sVMemberCount
p305
I0
sVOwnerUin
p306
I0
sVMemberList
p307
g50
sVAlias
p308
VYihoney_
p309
sVPYQuanPin
p310
Vspanclassemojiemoji1f33espancaoyispanclassemojiemoji1f33espan
p311
sVSignature
p312
V\u6709\u82b1\u6709\u6708\u6709\u697c\u53f0 \u4e0d\u98ce\u6d41\u5904\u4e5f\u98ce\u6d41
p313
sVRemarkPYInitial
p314
g52
sVContactFlag
p315
I3
sVUin
p316
I0
sVNickName
p317
V\U0001f33e\u8349\u4e59\U0001f33e
p318
sVAppAccountFlag
p319
I0
sVVerifyFlag
p320
I0
sVRemarkPYQuanPin
p321
g52
sVHeadImgUrl
p322
V/cgi-bin/mmwebwx-bin/webwxgeticon?seq=603850966&username=@1d41db4238f3e80ff0c64ddaa6f9abbe68290873a4aacb709da3909626ef1705&skey=@crypt_bda10ae4_4c3dddd8a156bec58839adc0f303773e
p323
sVKeyWord
p324
g52
sVProvince
p325
g52
sVPYInitial
p326
VSPANCLASSEMOJIEMOJI1F33ESPANCYSPANCLASSEMOJIEMOJI1F33ESPAN
p327
sVRemarkName
p328
g52
sVIsOwner
p329
I0
sVSex
p330
I2
sVStarFriend
p331
I0
sVHideInputBarFlag
p332
I0
sVChatRoomId
p333
I0
sVEncryChatRoomId
p334
g52
sVAttrStatus
p335
I33785893
sVStatues
p336
I0
stp337
Rp338
I1
bag34
(g38
g39
(dp339
VUserName
p340
V@fa5ade735df15fc61d96c4ac313fa8c6
p341
sVCity
p342
V\u8475\u9752\u533a
p343
sVSnsFlag
p344
I49
sVDisplayName
p345
g52
sVUniFriend
p346
I0
sVMemberCount
p347
I0
sVOwnerUin
p348
I0
sVMemberList
p349
g50
sVAlias
p350
g52
sVPYQuanPin
p351
Vspanclassemojiemoji1f335spanyezhier
p352
sVSignature
p353
V\u65f6\u5149\u6f2b\u957f\uff0c\u6709\u6211\u522b\u614c\u3002<span class="emoji emoji1f618"></span>
p354
sVRemarkPYInitial
p355
g52
sVContactFlag
p356
I3
sVUin
p357
I0
sVNickName
p358
V\U0001f335\u6930\u6c41\u513f
p359
sVAppAccountFlag
p360
I0
sVVerifyFlag
p361
I0
sVRemarkPYQuanPin
p362
g52
sVHeadImgUrl
p363
V/cgi-bin/mmwebwx-bin/webwxgeticon?seq=603850968&username=@fa5ade735df15fc61d96c4ac313fa8c6&skey=@crypt_bda10ae4_4c3dddd8a156bec58839adc0f303773e
p364
sVKeyWord
p365
Vyev
p366
sVProvince
p367
V\u9999\u6e2f
p368
sVPYInitial
p369
VSPANCLASSEMOJIEMOJI1F335SPANYZE
p370
sVRemarkName
p371
g52
sVIsOwner
p372
I0
sVSex
p373
I2
sVStarFriend
p374
I0
sVHideInputBarFlag
p375
I0
sVChatRoomId
p376
I0
sVEncryChatRoomId
p377
g52
sVAttrStatus
p378
I67623
sVStatues
p379
I0
stp380
Rp381
I1
batp382
Rp383
I1
bsS'chatroomList'
p384
g34
(g35
g36
(lp385
g34
(cchatcore.storage.templates
Chatroom
p386
g39
(dp387
VUserName
p388
V@@ecbeaa4249c8cdac419f40ba4d96e789a0d930a6f0bed5f82b68a09817f4c7d1
p389
sVCity
p390
g52
sVDisplayName
p391
g52
sVUniFriend
p392
I0
sS'Self'
p393
g34
(g38
g39
(dp394
g41
g31
sg42
g43
sg44
g43
sg45
I0
sg46
I0
sg47
g34
(g35
g36
(lp395
tp396
Rp397
I1
bsg51
g52
sg53
g52
sg54
I3413407412
sg55
I0
sg56
I0
sg57
g43
sg58
g43
sg59
g52
sg60
g52
sg61
I0
sg62
I0
sg63
I1
sg64
g43
sg65
I0
sg66
I0
sg67
I0
sg68
I0
sg69
g43
sg70
g52
sg71
I0
sg72
g73
sg74
g52
sg75
g76
sg77
I0
sg78
I0
sg79
I0
stp398
Rp399
I1
bsVMemberList
p400
g34
(g35
g36
(lp401
tp402
Rp403
I1
bsVPYQuanPin
p404
g52
sVRemarkPYInitial
p405
g52
sVSex
p406
I0
sVAppAccountFlag
p407
I0
sVVerifyFlag
p408
I0
sVProvince
p409
g52
sVKeyWord
p410
g52
sVRemarkName
p411
g52
sVPYInitial
p412
g52
sVIsOwner
p413
I0
sVChatRoomId
p414
I0
sVHideInputBarFlag
p415
I0
sVEncryChatRoomId
p416
g52
sVAttrStatus
p417
I0
sVSnsFlag
p418
I0
sVMemberCount
p419
I10
sVOwnerUin
p420
I0
sVAlias
p421
g52
sS'IsAdmin'
p422
NsVSignature
p423
g52
sVContactFlag
p424
I0
sVNickName
p425
V\u5bbe\u679c\u8001\u55e8\uff0c\u5bbe\u679c\u4efd\u4f4e
p426
sVRemarkPYQuanPin
p427
g52
sVHeadImgUrl
p428
V/cgi-bin/mmwebwx-bin/webwxgetheadimg?seq=0&username=@@ecbeaa4249c8cdac419f40ba4d96e789a0d930a6f0bed5f82b68a09817f4c7d1&skey=@crypt_bda10ae4_4c3dddd8a156bec58839adc0f303773e
p429
sVUin
p430
I0
sVStarFriend
p431
I0
sVStatues
p432
I1
stp433
Rp434
I1
bag34
(g386
g39
(dp435
VUserName
p436
V@@c82ddf6ad37801051871f3580327e1f214b24ac436a85c28d6a0ec081042913a
p437
sVCity
p438
g52
sVDisplayName
p439
g52
sVUniFriend
p440
I0
sg393
g34
(g38
g39
(dp441
g41
g31
sg42
g43
sg44
g43
sg45
I0
sg46
I0
sg47
g34
(g35
g36
(lp442
tp443
Rp444
I1
bsg51
g52
sg53
g52
sg54
I3413407412
sg55
I0
sg56
I0
sg57
g43
sg58
g43
sg59
g52
sg60
g52
sg61
I0
sg62
I0
sg63
I1
sg64
g43
sg65
I0
sg66
I0
sg67
I0
sg68
I0
sg69
g43
sg70
g52
sg71
I0
sg72
g73
sg74
g52
sg75
g76
sg77
I0
sg78
I0
sg79
I0
stp445
Rp446
I1
bsVMemberList
p447
g34
(g35
g36
(lp448
tp449
Rp450
I1
bsVPYQuanPin
p451
g52
sVRemarkPYInitial
p452
g52
sVSex
p453
I0
sVAppAccountFlag
p454
I0
sVVerifyFlag
p455
I0
sVProvince
p456
g52
sVKeyWord
p457
g52
sVRemarkName
p458
g52
sVPYInitial
p459
g52
sVIsOwner
p460
I0
sVChatRoomId
p461
I0
sVHideInputBarFlag
p462
I0
sVEncryChatRoomId
p463
g52
sVAttrStatus
p464
I0
sVSnsFlag
p465
I0
sVMemberCount
p466
I3
sVOwnerUin
p467
I0
sVAlias
p468
g52
sg422
NsVSignature
p469
g52
sVContactFlag
p470
I0
sVNickName
p471
VTsui.,Yat3s,Aran
p472
sVRemarkPYQuanPin
p473
g52
sVHeadImgUrl
p474
V/cgi-bin/mmwebwx-bin/webwxgetheadimg?seq=0&username=@@c82ddf6ad37801051871f3580327e1f214b24ac436a85c28d6a0ec081042913a&skey=@crypt_bda10ae4_4c3dddd8a156bec58839adc0f303773e
p475
sVUin
p476
I0
sVStarFriend
p477
I0
sVStatues
p478
I1
stp479
Rp480
I1
bag34
(g386
g39
(dp481
VUserName
p482
V@@da60a95596985f925d51bef3b7a478be83a2ebcac90b6445ed379e6ff409836b
p483
sVCity
p484
g52
sVDisplayName
p485
g52
sVUniFriend
p486
I0
sg393
g34
(g38
g39
(dp487
g41
g31
sg42
g43
sg44
g43
sg45
I0
sg46
I0
sg47
g34
(g35
g36
(lp488
tp489
Rp490
I1
bsg51
g52
sg53
g52
sg54
I3413407412
sg55
I0
sg56
I0
sg57
g43
sg58
g43
sg59
g52
sg60
g52
sg61
I0
sg62
I0
sg63
I1
sg64
g43
sg65
I0
sg66
I0
sg67
I0
sg68
I0
sg69
g43
sg70
g52
sg71
I0
sg72
g73
sg74
g52
sg75
g76
sg77
I0
sg78
I0
sg79
I0
stp491
Rp492
I1
bsVMemberList
p493
g34
(g35
g36
(lp494
tp495
Rp496
I1
bsVPYQuanPin
p497
g52
sVRemarkPYInitial
p498
g52
sVSex
p499
I0
sVAppAccountFlag
p500
I0
sVVerifyFlag
p501
I0
sVProvince
p502
g52
sVKeyWord
p503
g52
sVRemarkName
p504
g52
sVPYInitial
p505
g52
sVIsOwner
p506
I0
sVChatRoomId
p507
I0
sVHideInputBarFlag
p508
I0
sVEncryChatRoomId
p509
g52
sVAttrStatus
p510
I0
sVSnsFlag
p511
I0
sVMemberCount
p512
I3
sVOwnerUin
p513
I0
sVAlias
p514
g52
sg422
NsVSignature
p515
g52
sVContactFlag
p516
I0
sVNickName
p517
V\u7a0b\u5e8f\u733f\u7684\u4eba\u5de5\u667a\u80fd\u5973\u53cb
p518
sVRemarkPYQuanPin
p519
g52
sVHeadImgUrl
p520
V/cgi-bin/mmwebwx-bin/webwxgetheadimg?seq=0&username=@@da60a95596985f925d51bef3b7a478be83a2ebcac90b6445ed379e6ff409836b&skey=@crypt_bda10ae4_4c3dddd8a156bec58839adc0f303773e
p521
sVUin
p522
I0
sVStarFriend
p523
I0
sVStatues
p524
I1
stp525
Rp526
I1
bag34
(g386
g39
(dp527
VUserName
p528
V@@0bd47ea796d078cd5c1f529f99eca749ba4ae3724f45412672f2156df9a713ee
p529
sVCity
p530
g52
sVDisplayName
p531
g52
sVUniFriend
p532
I0
sg393
g34
(g38
g39
(dp533
g41
g31
sg42
g43
sg44
g43
sg45
I0
sg46
I0
sg47
g34
(g35
g36
(lp534
tp535
Rp536
I1
bsg51
g52
sg53
g52
sg54
I3413407412
sg55
I0
sg56
I0
sg57
g43
sg58
g43
sg59
g52
sg60
g52
sg61
I0
sg62
I0
sg63
I1
sg64
g43
sg65
I0
sg66
I0
sg67
I0
sg68
I0
sg69
g43
sg70
g52
sg71
I0
sg72
g73
sg74
g52
sg75
g76
sg77
I0
sg78
I0
sg79
I0
stp537
Rp538
I1
bsVMemberList
p539
g34
(g35
g36
(lp540
tp541
Rp542
I1
bsVPYQuanPin
p543
g52
sVRemarkPYInitial
p544
g52
sVSex
p545
I0
sVAppAccountFlag
p546
I0
sVVerifyFlag
p547
I0
sVProvince
p548
g52
sVKeyWord
p549
g52
sVRemarkName
p550
g52
sVPYInitial
p551
g52
sVIsOwner
p552
I0
sVChatRoomId
p553
I0
sVHideInputBarFlag
p554
I0
sVEncryChatRoomId
p555
g52
sVAttrStatus
p556
I0
sVSnsFlag
p557
I0
sVMemberCount
p558
I8
sVOwnerUin
p559
I0
sVAlias
p560
g52
sg422
NsVSignature
p561
g52
sVContactFlag
p562
I2
sVNickName
p563
Vbdp\u79fb\u52a8\u7ec4
p564
sVRemarkPYQuanPin
p565
g52
sVHeadImgUrl
p566
V/cgi-bin/mmwebwx-bin/webwxgetheadimg?seq=603850379&username=@@0bd47ea796d078cd5c1f529f99eca749ba4ae3724f45412672f2156df9a713ee&skey=@crypt_bda10ae4_4c3dddd8a156bec58839adc0f303773e
p567
sVUin
p568
I0
sVStarFriend
p569
I0
sVStatues
p570
I1
stp571
Rp572
I1
bag34
(g386
g39
(dp573
VUserName
p574
V@@7cdd1f1ad0711745a2dc4ae4977970d76416063773ce8a84b681d6b9a849efbf
p575
sVCity
p576
g52
sVDisplayName
p577
g52
sVUniFriend
p578
I0
sg393
g34
(g38
g39
(dp579
g41
g31
sg42
g43
sg44
g43
sg45
I0
sg46
I0
sg47
g34
(g35
g36
(lp580
tp581
Rp582
I1
bsg51
g52
sg53
g52
sg54
I3413407412
sg55
I0
sg56
I0
sg57
g43
sg58
g43
sg59
g52
sg60
g52
sg61
I0
sg62
I0
sg63
I1
sg64
g43
sg65
I0
sg66
I0
sg67
I0
sg68
I0
sg69
g43
sg70
g52
sg71
I0
sg72
g73
sg74
g52
sg75
g76
sg77
I0
sg78
I0
sg79
I0
stp583
Rp584
I1
bsVMemberList
p585
g34
(g35
g36
(lp586
tp587
Rp588
I1
bsVPYQuanPin
p589
g52
sVRemarkPYInitial
p590
g52
sVSex
p591
I0
sVAppAccountFlag
p592
I0
sVVerifyFlag
p593
I0
sVProvince
p594
g52
sVKeyWord
p595
g52
sVRemarkName
p596
g52
sVPYInitial
p597
g52
sVIsOwner
p598
I0
sVChatRoomId
p599
I0
sVHideInputBarFlag
p600
I0
sVEncryChatRoomId
p601
g52
sVAttrStatus
p602
I0
sVSnsFlag
p603
I0
sVMemberCount
p604
I8
sVOwnerUin
p605
I0
sVAlias
p606
g52
sg422
NsVSignature
p607
g52
sVContactFlag
p608
I2
sVNickName
p609
V\u7ea2\u5305\u96e8
p610
sVRemarkPYQuanPin
p611
g52
sVHeadImgUrl
p612
V/cgi-bin/mmwebwx-bin/webwxgetheadimg?seq=603850892&username=@@7cdd1f1ad0711745a2dc4ae4977970d76416063773ce8a84b681d6b9a849efbf&skey=@crypt_bda10ae4_4c3dddd8a156bec58839adc0f303773e
p613
sVUin
p614
I0
sVStarFriend
p615
I0
sVStatues
p616
I1
stp617
Rp618
I1
bag34
(g386
g39
(dp619
VUserName
p620
V@@73ff21baa8dc121ac3936a640b2bd3cefebd4c70e8a74b7a770697a9950e6e50
p621
sVCity
p622
g52
sVDisplayName
p623
g52
sVUniFriend
p624
I0
sg393
g34
(g38
g39
(dp625
g41
g31
sg42
g43
sg44
g43
sg45
I0
sg46
I0
sg47
g34
(g35
g36
(lp626
tp627
Rp628
I1
bsg51
g52
sg53
g52
sg54
I3413407412
sg55
I0
sg56
I0
sg57
g43
sg58
g43
sg59
g52
sg60
g52
sg61
I0
sg62
I0
sg63
I1
sg64
g43
sg65
I0
sg66
I0
sg67
I0
sg68
I0
sg69
g43
sg70
g52
sg71
I0
sg72
g73
sg74
g52
sg75
g76
sg77
I0
sg78
I0
sg79
I0
stp629
Rp630
I1
bsVMemberList
p631
g34
(g35
g36
(lp632
tp633
Rp634
I1
bsVPYQuanPin
p635
g52
sVRemarkPYInitial
p636
g52
sVSex
p637
I0
sVAppAccountFlag
p638
I0
sVVerifyFlag
p639
I0
sVProvince
p640
g52
sVKeyWord
p641
g52
sVRemarkName
p642
g52
sVPYInitial
p643
g52
sVIsOwner
p644
I0
sVChatRoomId
p645
I0
sVHideInputBarFlag
p646
I0
sVEncryChatRoomId
p647
g52
sVAttrStatus
p648
I0
sVSnsFlag
p649
I0
sVMemberCount
p650
I3
sVOwnerUin
p651
I0
sVAlias
p652
g52
sg422
NsVSignature
p653
g52
sVContactFlag
p654
I0
sVNickName
p655
VYat3s,echo\u5c0f\u840c,Aran
p656
sVRemarkPYQuanPin
p657
g52
sVHeadImgUrl
p658
V/cgi-bin/mmwebwx-bin/webwxgetheadimg?seq=0&username=@@73ff21baa8dc121ac3936a640b2bd3cefebd4c70e8a74b7a770697a9950e6e50&skey=@crypt_bda10ae4_4c3dddd8a156bec58839adc0f303773e
p659
sVUin
p660
I0
sVStarFriend
p661
I0
sVStatues
p662
I1
stp663
Rp664
I1
batp665
Rp666
I1
bsS'nickName'
p667
g73
sS'mpList'
p668
g34
(g35
g36
(lp669
g34
(cchatcore.storage.templates
MassivePlatform
p670
g39
(dp671
VUserName
p672
V@f2d0905230c316bade3be2f9b09df64e
p673
sVCity
p674
V\u5e7f\u5dde
p675
sVSnsFlag
p676
I0
sVDisplayName
p677
g52
sVUniFriend
p678
I0
sVMemberCount
p679
I0
sVOwnerUin
p680
I0
sVMemberList
p681
g50
sVAlias
p682
g52
sVPYQuanPin
p683
Vgongzhongpingtaianquanzhushou
p684
sVSignature
p685
V\u63d0\u4f9b\u5fae\u4fe1\u516c\u4f17\u53f7\u767b\u5f55\u548c\u7fa4\u53d1\u7b49\u5b89\u5168\u64cd\u4f5c\uff0c\u5728\u624b\u673a\u4e0a\u67e5\u6536\u6d88\u606f\u3001\u8bc4\u8bba\u3001\u8d5e\u8d4f\uff0c\u65b0\u5efa\u7fa4\u53d1\u548c\u67e5\u770b\u7fa4\u53d1\u5386\u53f2\u3002
p686
sVRemarkPYInitial
p687
g52
sVContactFlag
p688
I3
sVUin
p689
I0
sVNickName
p690
V\u516c\u4f17\u5e73\u53f0\u5b89\u5168\u52a9\u624b
p691
sVAppAccountFlag
p692
I0
sVVerifyFlag
p693
I24
sVRemarkPYQuanPin
p694
g52
sVHeadImgUrl
p695
V/cgi-bin/mmwebwx-bin/webwxgeticon?seq=600880067&username=@f2d0905230c316bade3be2f9b09df64e&skey=@crypt_bda10ae4_4c3dddd8a156bec58839adc0f303773e
p696
sVKeyWord
p697
Vmph
p698
sVProvince
p699
V\u5e7f\u4e1c
p700
sVPYInitial
p701
VGZPTAQZS
p702
sVRemarkName
p703
g52
sVIsOwner
p704
I0
sVSex
p705
I0
sVStarFriend
p706
I0
sVHideInputBarFlag
p707
I0
sVChatRoomId
p708
I0
sVEncryChatRoomId
p709
g52
sVAttrStatus
p710
I98459
sVStatues
p711
I0
stp712
Rp713
I1
bag34
(g670
g39
(dp714
VUserName
p715
V@b47607021c67158fa5296ac7fccd97c0
p716
sVCity
p717
V\u897f\u57ce
p718
sVSnsFlag
p719
I0
sVDisplayName
p720
g52
sVUniFriend
p721
I0
sVMemberCount
p722
I0
sVOwnerUin
p723
I0
sVMemberList
p724
g50
sVAlias
p725
VChinaUnicom800010010
p726
sVPYQuanPin
p727
Vzhongguoliantong
p728
sVSignature
p729
V\u4e2d\u56fd\u8054\u901a\u5fae\u4fe1\u8425\u4e1a\u5385\uff0c\u4fbf\u6377\u968f\u8eab\uff0c\u67e5\u8be2\u529e\u7406\u4e00\u952e\u641e\u5b9a\uff0c\u8fd8\u6709\u5ba2\u670dMM\u8d34\u5fc3\u89e3\u5fe7\uff0c\u66f4\u591a\u8d44\u8baf\u63a8\u8350\u4e0e\u60a8\u5206\u4eab\u3002\u656c\u8bf7\u5149\u4e34\uff0c\u671f\u5f85\u60ca\u559c\uff01
p730
sVRemarkPYInitial
p731
g52
sVContactFlag
p732
I3
sVUin
p733
I0
sVNickName
p734
V\u4e2d\u56fd\u8054\u901a
p735
sVAppAccountFlag
p736
I0
sVVerifyFlag
p737
I24
sVRemarkPYQuanPin
p738
g52
sVHeadImgUrl
p739
V/cgi-bin/mmwebwx-bin/webwxgeticon?seq=603850307&username=@b47607021c67158fa5296ac7fccd97c0&skey=@crypt_bda10ae4_4c3dddd8a156bec58839adc0f303773e
p740
sVKeyWord
p741
Vgh_
p742
sVProvince
p743
V\u5317\u4eac
p744
sVPYInitial
p745
VZGLT
p746
sVRemarkName
p747
g52
sVIsOwner
p748
I0
sVSex
p749
I0
sVStarFriend
p750
I0
sVHideInputBarFlag
p751
I0
sVChatRoomId
p752
I0
sVEncryChatRoomId
p753
g52
sVAttrStatus
p754
I0
sVStatues
p755
I0
stp756
Rp757
I1
batp758
Rp759
I1
bssS'loginInfo'
p760
(dp761
S'SyncKey'
p762
(dp763
VCount
p764
I4
sVList
p765
(lp766
(dp767
VVal
p768
I603851406
sVKey
p769
I1
sa(dp770
VVal
p771
I603852488
sVKey
p772
I2
sa(dp773
VVal
p774
I603851910
sVKey
p775
I3
sa(dp776
VVal
p777
I1493200441
sVKey
p778
I1000
sassS'syncUrl'
p779
S'https://webpush.wx2.qq.com/cgi-bin/mmwebwx-bin'
p780
sS'skey'
p781
V@crypt_bda10ae4_4c3dddd8a156bec58839adc0f303773e
p782
sS'wxuin'
p783
V3413407412
p784
sS'synckey'
p785
S'1_603851406|2_603852488|3_603851910|1000_1493200441'
p786
sS'url'
p787
Vhttps://wx2.qq.com/cgi-bin/mmwebwx-bin
p788
sS'pass_ticket'
p789
VHDnhtelHG9mR2ZUzAxVDRZEHR8gzSPJGln8UnP92cuQX2wY5N5rBUwKfT8auJ%2FKK
p790
sS'wxsid'
p791
VA2DMXtl+dyd6ozG+
p792
sS'User'
p793
g34
(g38
g39
(dp794
g41
g31
sg42
g43
sg44
g43
sg45
I0
sg47
g50
sg51
g52
sg53
g52
sg77
I0
sg55
I0
sg56
I0
sg57
g43
sg58
g43
sg59
g52
sg60
g52
sg61
I0
sg62
I0
sg63
I1
sg64
g43
sg65
I0
sg68
I0
sg66
I0
sg67
I0
sg46
I0
sg69
g43
sg70
g52
sg71
I0
sg72
g73
sg74
g52
sg75
g76
sg54
I3413407412
sg78
I0
sg79
I0
stp795
Rp796
I1
bsS'InviteStartCount'
p797
I40
sS'fileUrl'
p798
S'https://file.wx2.qq.com/cgi-bin/mmwebwx-bin'
p799
sS'BaseRequest'
p800
(dp801
g54
g784
sS'Skey'
p802
g782
sS'DeviceID'
p803
g790
sS'Sid'
p804
g792
ssS'deviceid'
p805
S'e318825135551055'
p806
ss.