(dp0
S'cookies'
p1
(dp2
S'webwx_data_ticket'
p3
S'gSfIYWrY2lXSlCBWFhBwBNvo'
p4
sS'wxuin'
p5
S'3413407412'
p6
sS'webwxuvid'
p7
S'0ad038a387f4269064e4a4417f4f53ec4ba09bc37f4701209a4da3a50b6aec896a69993b6d7c2be70829c938fc402626'
p8
sS'webwx_auth_ticket'
p9
S'CIsBEP7kjsIMGoABdt/kAiKBEn4C0DedA3CCA+BFmEPmcFYkh6UNfVEmRNmFOb3logmcgrIDBqK+TxThDpb7/IgPm3o2b6FBHswdgc/ivWsrabBfV68kB0fCk67NA6Zc30t/ts5Gj57SJePmAQga1OlVJ3f5q58df6W37xFN85k+IB4fikaBbsCEJ/E='
p10
sS'wxloadtime'
p11
S'1493198905'
p12
sS'wxsid'
p13
S'gsK/ZMNx1DubdB91'
p14
sS'mm_lang'
p15
S'zh_CN'
p16
ssS'version'
p17
S'1.3.5'
p18
sS'storage'
p19
(dp20
S'userName'
p21
V@28cc5de9e011194f48ea3c7c17bf001c50fd59d5834aa0473513d1ce077816e7
p22
sS'lastInputUserName'
p23
NsS'memberList'
p24
ccopy_reg
_reconstructor
p25
(cchatcore.storage.templates
ContactList
p26
c__builtin__
list
p27
(lp28
g25
(cchatcore.storage.templates
User
p29
c__builtin__
dict
p30
(dp31
S'UserName'
p32
g22
sS'City'
p33
S''
p34
sS'DisplayName'
p35
g34
sS'UniFriend'
p36
I0
sS'OwnerUin'
p37
I0
sS'MemberList'
p38
g25
(g26
g27
(lp39
tp40
Rp41
I1
bsS'PYQuanPin'
p42
V
p43
sS'RemarkPYInitial'
p44
g43
sS'Uin'
p45
I3413407412
sS'AppAccountFlag'
p46
I0
sS'VerifyFlag'
p47
I0
sS'Province'
p48
g34
sS'KeyWord'
p49
g34
sS'RemarkName'
p50
g43
sS'PYInitial'
p51
g43
sS'ChatRoomId'
p52
I0
sS'HideInputBarFlag'
p53
I0
sVHeadImgFlag
p54
I1
sS'EncryChatRoomId'
p55
g34
sS'AttrStatus'
p56
I0
sS'SnsFlag'
p57
I0
sS'MemberCount'
p58
I0
sVWebWxPluginSwitch
p59
I0
sS'Alias'
p60
g34
sS'Signature'
p61
g43
sS'ContactFlag'
p62
I0
sS'NickName'
p63
VAran
p64
sS'RemarkPYQuanPin'
p65
g43
sS'HeadImgUrl'
p66
V/cgi-bin/mmwebwx-bin/webwxgeticon?seq=659450401&username=@28cc5de9e011194f48ea3c7c17bf001c50fd59d5834aa0473513d1ce077816e7&skey=@crypt_bda10ae4_993456bcff7991448369563840006ea2
p67
sS'Sex'
p68
I0
sS'StarFriend'
p69
I0
sS'Statues'
p70
I0
stp71
Rp72
I1
bag25
(g29
g30
(dp73
VUserName
p74
V@a795fd9c03dc7013c6a18dc4a632cc2a0500463404d6413a6993ad8bb1cd3710
p75
sVCity
p76
V\u4e1c\u57ce
p77
sVSnsFlag
p78
I49
sVDisplayName
p79
g43
sVUniFriend
p80
I0
sVMemberCount
p81
I0
sVOwnerUin
p82
I0
sVMemberList
p83
g41
sVAlias
p84
VYe-zone
p85
sVPYQuanPin
p86
VYat3s
p87
sVSignature
p88
V\u4e00\u53ea\u7231\u73a9\u7684\u7a0b\u5e8f\u6c6a<span class="emoji emoji1f436"></span>
p89
sVRemarkPYInitial
p90
g43
sVContactFlag
p91
I3
sVUin
p92
I0
sVNickName
p93
VYat3s
p94
sVAppAccountFlag
p95
I0
sVVerifyFlag
p96
I0
sVRemarkPYQuanPin
p97
g43
sVHeadImgUrl
p98
V/cgi-bin/mmwebwx-bin/webwxgeticon?seq=603850332&username=@a795fd9c03dc7013c6a18dc4a632cc2a0500463404d6413a6993ad8bb1cd3710&skey=@crypt_bda10ae4_993456bcff7991448369563840006ea2
p99
sVKeyWord
p100
g43
sVProvince
p101
V\u5317\u4eac
p102
sVPYInitial
p103
VYAT3S
p104
sVRemarkName
p105
g43
sVIsOwner
p106
I0
sVSex
p107
I1
sVStarFriend
p108
I0
sVHideInputBarFlag
p109
I0
sVChatRoomId
p110
I0
sVEncryChatRoomId
p111
g43
sVAttrStatus
p112
I37851239
sVStatues
p113
I0
stp114
Rp115
I1
bag25
(g29
g30
(dp116
VUserName
p117
V@d74cbd052aa4f666955a7c3d5802d1651bc967fbed50e05d4f8c93cd1c9f212d
p118
sVCity
p119
g43
sVSnsFlag
p120
I49
sVDisplayName
p121
g43
sVUniFriend
p122
I0
sVMemberCount
p123
I0
sVOwnerUin
p124
I0
sVMemberList
p125
g41
sVAlias
p126
Vecholee1991
p127
sVPYQuanPin
p128
Vechoxiaomeng
p129
sVSignature
p130
V\u65e2\u7136\u7434\u745f\u8d77
p131
sVRemarkPYInitial
p132
g43
sVContactFlag
p133
I3
sVUin
p134
I0
sVNickName
p135
Vecho\u5c0f\u840c
p136
sVAppAccountFlag
p137
I0
sVVerifyFlag
p138
I0
sVRemarkPYQuanPin
p139
g43
sVHeadImgUrl
p140
V/cgi-bin/mmwebwx-bin/webwxgeticon?seq=603851910&username=@d74cbd052aa4f666955a7c3d5802d1651bc967fbed50e05d4f8c93cd1c9f212d&skey=@crypt_bda10ae4_993456bcff7991448369563840006ea2
p141
sVKeyWord
p142
g43
sVProvince
p143
V\u5317\u4eac
p144
sVPYInitial
p145
VECHOXM
p146
sVRemarkName
p147
g43
sVIsOwner
p148
I0
sVSex
p149
I2
sVStarFriend
p150
I0
sVHideInputBarFlag
p151
I0
sVChatRoomId
p152
I0
sVEncryChatRoomId
p153
g43
sVAttrStatus
p154
I67224677
sVStatues
p155
I0
stp156
Rp157
I1
bag25
(g29
g30
(dp158
VUserName
p159
V@a1a71d9e7846ae89849027eddcbec3ac59a1855c7c842bf26a8f1b2075a5cf33
p160
sVCity
p161
g43
sVSnsFlag
p162
I17
sVDisplayName
p163
g43
sVUniFriend
p164
I0
sVMemberCount
p165
I0
sVOwnerUin
p166
I0
sVMemberList
p167
g41
sVAlias
p168
VJava2048
p169
sVPYQuanPin
p170
Vxiaodeqiu
p171
sVSignature
p172
V\u5b66\u800c\u4e0d\u601d\u5219\u7f54\uff0c\u54c8\u54c8
p173
sVRemarkPYInitial
p174
g43
sVContactFlag
p175
I3
sVUin
p176
I0
sVNickName
p177
V\u5c0f\u5730\u7403
p178
sVAppAccountFlag
p179
I0
sVVerifyFlag
p180
I0
sVRemarkPYQuanPin
p181
g43
sVHeadImgUrl
p182
V/cgi-bin/mmwebwx-bin/webwxgeticon?seq=603851078&username=@a1a71d9e7846ae89849027eddcbec3ac59a1855c7c842bf26a8f1b2075a5cf33&skey=@crypt_bda10ae4_993456bcff7991448369563840006ea2
p183
sVKeyWord
p184
g43
sVProvince
p185
VFrankfurt
p186
sVPYInitial
p187
VXDQ
p188
sVRemarkName
p189
g43
sVIsOwner
p190
I0
sVSex
p191
I1
sVStarFriend
p192
I0
sVHideInputBarFlag
p193
I0
sVChatRoomId
p194
I0
sVEncryChatRoomId
p195
g43
sVAttrStatus
p196
I33789989
sVStatues
p197
I0
stp198
Rp199
I1
bag25
(g29
g30
(dp200
VUserName
p201
V@8b035b28b3370755c4eb28fb6107258398376b285ad973b86555877ddf8866fe
p202
sVCity
p203
V\u8d63\u5dde
p204
sVSnsFlag
p205
I49
sVDisplayName
p206
g43
sVUniFriend
p207
I0
sVMemberCount
p208
I0
sVOwnerUin
p209
I0
sVMemberList
p210
g41
sVAlias
p211
VElain1025
p212
sVPYQuanPin
p213
Vxiaoliao15807504515
p214
sVSignature
p215
V\u4e0b\u8f88\u5b50\u6295\u80ce\u505a\u4e2a\u7537\u4eba\uff0c\u5a36\u4e2a\u50cf\u6211\u8fd9\u6837\u7684\u5973\u4eba\U0001f64815807504515
p216
sVRemarkPYInitial
p217
VELAINE
p218
sVContactFlag
p219
I3
sVUin
p220
I0
sVNickName
p221
V\u5c0f\u5ed6 15807504515
p222
sVAppAccountFlag
p223
I0
sVVerifyFlag
p224
I0
sVRemarkPYQuanPin
p225
VElaine
p226
sVHeadImgUrl
p227
V/cgi-bin/mmwebwx-bin/webwxgeticon?seq=603850127&username=@8b035b28b3370755c4eb28fb6107258398376b285ad973b86555877ddf8866fe&skey=@crypt_bda10ae4_993456bcff7991448369563840006ea2
p228
sVKeyWord
p229
g43
sVProvince
p230
V\u6c5f\u897f
p231
sVPYInitial
p232
VXL15807504515
p233
sVRemarkName
p234
VElaine
p235
sVIsOwner
p236
I0
sVSex
p237
I2
sVStarFriend
p238
I0
sVHideInputBarFlag
p239
I0
sVChatRoomId
p240
I0
sVEncryChatRoomId
p241
g43
sVAttrStatus
p242
I69669
sVStatues
p243
I0
stp244
Rp245
I1
bag25
(g29
g30
(dp246
VUserName
p247
V@db60b4556191a775dddf4c1af23ab7b648a4dcb165ccae87ff8c59862bc004e5
p248
sVCity
p249
V\u671d\u9633
p250
sVSnsFlag
p251
I17
sVDisplayName
p252
g43
sVUniFriend
p253
I0
sVMemberCount
p254
I0
sVOwnerUin
p255
I0
sVMemberList
p256
g41
sVAlias
p257
Vmy_cheese92
p258
sVPYQuanPin
p259
VKerry
p260
sVSignature
p261
V\u4ee5\u68a6\u4e3a\u9a6c\uff0c\u4e0d\u8d1f\u97f6\u534e
p262
sVRemarkPYInitial
p263
g43
sVContactFlag
p264
I3
sVUin
p265
I0
sVNickName
p266
VKerry
p267
sVAppAccountFlag
p268
I0
sVVerifyFlag
p269
I0
sVRemarkPYQuanPin
p270
g43
sVHeadImgUrl
p271
V/cgi-bin/mmwebwx-bin/webwxgeticon?seq=603850763&username=@db60b4556191a775dddf4c1af23ab7b648a4dcb165ccae87ff8c59862bc004e5&skey=@crypt_bda10ae4_993456bcff7991448369563840006ea2
p272
sVKeyWord
p273
g43
sVProvince
p274
V\u5317\u4eac
p275
sVPYInitial
p276
VKERRY
p277
sVRemarkName
p278
g43
sVIsOwner
p279
I0
sVSex
p280
I2
sVStarFriend
p281
I0
sVHideInputBarFlag
p282
I0
sVChatRoomId
p283
I0
sVEncryChatRoomId
p284
g43
sVAttrStatus
p285
I33674359
sVStatues
p286
I0
stp287
Rp288
I1
bag25
(g29
g30
(dp289
VUserName
p290
V@7b7fe0a958dafbb187e747daaaf3db5436456215eb7f6d0e4118a25e7fd26e80
p291
sVCity
p292
g43
sVSnsFlag
p293
I17
sVDisplayName
p294
g43
sVUniFriend
p295
I0
sVMemberCount
p296
I0
sVOwnerUin
p297
I0
sVMemberList
p298
g41
sVAlias
p299
VYihoney_
p300
sVPYQuanPin
p301
Vspanclassemojiemoji1f33espancaoyispanclassemojiemoji1f33espan
p302
sVSignature
p303
V\u6709\u82b1\u6709\u6708\u6709\u697c\u53f0 \u4e0d\u98ce\u6d41\u5904\u4e5f\u98ce\u6d41
p304
sVRemarkPYInitial
p305
g43
sVContactFlag
p306
I3
sVUin
p307
I0
sVNickName
p308
V\U0001f33e\u8349\u4e59\U0001f33e
p309
sVAppAccountFlag
p310
I0
sVVerifyFlag
p311
I0
sVRemarkPYQuanPin
p312
g43
sVHeadImgUrl
p313
V/cgi-bin/mmwebwx-bin/webwxgeticon?seq=603850966&username=@7b7fe0a958dafbb187e747daaaf3db5436456215eb7f6d0e4118a25e7fd26e80&skey=@crypt_bda10ae4_993456bcff7991448369563840006ea2
p314
sVKeyWord
p315
g43
sVProvince
p316
g43
sVPYInitial
p317
VSPANCLASSEMOJIEMOJI1F33ESPANCYSPANCLASSEMOJIEMOJI1F33ESPAN
p318
sVRemarkName
p319
g43
sVIsOwner
p320
I0
sVSex
p321
I2
sVStarFriend
p322
I0
sVHideInputBarFlag
p323
I0
sVChatRoomId
p324
I0
sVEncryChatRoomId
p325
g43
sVAttrStatus
p326
I33785893
sVStatues
p327
I0
stp328
Rp329
I1
bag25
(g29
g30
(dp330
VUserName
p331
V@4d98de924087ae307f76cf4ee08136c3
p332
sVCity
p333
V\u8475\u9752\u533a
p334
sVSnsFlag
p335
I49
sVDisplayName
p336
g43
sVUniFriend
p337
I0
sVMemberCount
p338
I0
sVOwnerUin
p339
I0
sVMemberList
p340
g41
sVAlias
p341
g43
sVPYQuanPin
p342
Vspanclassemojiemoji1f335spanyezhier
p343
sVSignature
p344
V\u65f6\u5149\u6f2b\u957f\uff0c\u6709\u6211\u522b\u614c\u3002<span class="emoji emoji1f618"></span>
p345
sVRemarkPYInitial
p346
g43
sVContactFlag
p347
I3
sVUin
p348
I0
sVNickName
p349
V\U0001f335\u6930\u6c41\u513f
p350
sVAppAccountFlag
p351
I0
sVVerifyFlag
p352
I0
sVRemarkPYQuanPin
p353
g43
sVHeadImgUrl
p354
V/cgi-bin/mmwebwx-bin/webwxgeticon?seq=603850968&username=@4d98de924087ae307f76cf4ee08136c3&skey=@crypt_bda10ae4_993456bcff7991448369563840006ea2
p355
sVKeyWord
p356
Vyev
p357
sVProvince
p358
V\u9999\u6e2f
p359
sVPYInitial
p360
VSPANCLASSEMOJIEMOJI1F335SPANYZE
p361
sVRemarkName
p362
g43
sVIsOwner
p363
I0
sVSex
p364
I2
sVStarFriend
p365
I0
sVHideInputBarFlag
p366
I0
sVChatRoomId
p367
I0
sVEncryChatRoomId
p368
g43
sVAttrStatus
p369
I67623
sVStatues
p370
I0
stp371
Rp372
I1
batp373
Rp374
I1
bsS'chatroomList'
p375
g25
(g26
g27
(lp376
g25
(cchatcore.storage.templates
Chatroom
p377
g30
(dp378
VUserName
p379
V@@4dd93a1622b6577a9df65f714e565c31961144295f4fa256b365f5e9d0335618
p380
sVCity
p381
g43
sVDisplayName
p382
g43
sVUniFriend
p383
I0
sS'Self'
p384
g25
(g29
g30
(dp385
g32
g22
sg33
g34
sg35
g34
sg36
I0
sg37
I0
sg38
g25
(g26
g27
(lp386
tp387
Rp388
I1
bsg42
g43
sg44
g43
sg45
I3413407412
sg46
I0
sg47
I0
sg48
g34
sg49
g34
sg50
g43
sg51
g43
sg52
I0
sg53
I0
sg54
I1
sg55
g34
sg56
I0
sg57
I0
sg58
I0
sg59
I0
sg60
g34
sg61
g43
sg62
I0
sg63
g64
sg65
g43
sg66
g67
sg68
I0
sg69
I0
sg70
I0
stp389
Rp390
I1
bsVMemberList
p391
g25
(g26
g27
(lp392
tp393
Rp394
I1
bsVPYQuanPin
p395
g43
sVRemarkPYInitial
p396
g43
sVSex
p397
I0
sVAppAccountFlag
p398
I0
sVVerifyFlag
p399
I0
sVProvince
p400
g43
sVKeyWord
p401
g43
sVRemarkName
p402
g43
sVPYInitial
p403
g43
sVIsOwner
p404
I0
sVChatRoomId
p405
I0
sVHideInputBarFlag
p406
I0
sVEncryChatRoomId
p407
g43
sVAttrStatus
p408
I0
sVSnsFlag
p409
I0
sVMemberCount
p410
I3
sVOwnerUin
p411
I0
sVAlias
p412
g43
sS'IsAdmin'
p413
NsVSignature
p414
g43
sVContactFlag
p415
I0
sVNickName
p416
V\u7a0b\u5e8f\u733f\u7684\u4eba\u5de5\u667a\u80fd\u5973\u53cb
p417
sVRemarkPYQuanPin
p418
g43
sVHeadImgUrl
p419
V/cgi-bin/mmwebwx-bin/webwxgetheadimg?seq=0&username=@@4dd93a1622b6577a9df65f714e565c31961144295f4fa256b365f5e9d0335618&skey=@crypt_bda10ae4_993456bcff7991448369563840006ea2
p420
sVUin
p421
I0
sVStarFriend
p422
I0
sVStatues
p423
I1
stp424
Rp425
I1
bag25
(g377
g30
(dp426
VUserName
p427
V@@0492ca94333661cb48e714a535b1b13034e4ab9c27007cedc88503ac20b0b254
p428
sVCity
p429
g43
sVDisplayName
p430
g43
sVUniFriend
p431
I0
sg384
g25
(g29
g30
(dp432
g32
g22
sg33
g34
sg35
g34
sg36
I0
sg37
I0
sg38
g25
(g26
g27
(lp433
tp434
Rp435
I1
bsg42
g43
sg44
g43
sg45
I3413407412
sg46
I0
sg47
I0
sg48
g34
sg49
g34
sg50
g43
sg51
g43
sg52
I0
sg53
I0
sg54
I1
sg55
g34
sg56
I0
sg57
I0
sg58
I0
sg59
I0
sg60
g34
sg61
g43
sg62
I0
sg63
g64
sg65
g43
sg66
g67
sg68
I0
sg69
I0
sg70
I0
stp436
Rp437
I1
bsVMemberList
p438
g25
(g26
g27
(lp439
tp440
Rp441
I1
bsVPYQuanPin
p442
g43
sVRemarkPYInitial
p443
g43
sVSex
p444
I0
sVAppAccountFlag
p445
I0
sVVerifyFlag
p446
I0
sVProvince
p447
g43
sVKeyWord
p448
g43
sVRemarkName
p449
g43
sVPYInitial
p450
g43
sVIsOwner
p451
I0
sVChatRoomId
p452
I0
sVHideInputBarFlag
p453
I0
sVEncryChatRoomId
p454
g43
sVAttrStatus
p455
I0
sVSnsFlag
p456
I0
sVMemberCount
p457
I8
sVOwnerUin
p458
I0
sVAlias
p459
g43
sg413
NsVSignature
p460
g43
sVContactFlag
p461
I2
sVNickName
p462
Vbdp\u79fb\u52a8\u7ec4
p463
sVRemarkPYQuanPin
p464
g43
sVHeadImgUrl
p465
V/cgi-bin/mmwebwx-bin/webwxgetheadimg?seq=603850379&username=@@0492ca94333661cb48e714a535b1b13034e4ab9c27007cedc88503ac20b0b254&skey=@crypt_bda10ae4_993456bcff7991448369563840006ea2
p466
sVUin
p467
I0
sVStarFriend
p468
I0
sVStatues
p469
I1
stp470
Rp471
I1
bag25
(g377
g30
(dp472
VUserName
p473
V@@8f02852d7dc6bbe882197f834f0fe95377646257712275c7e5292d269b37f71d
p474
sVCity
p475
g43
sVDisplayName
p476
g43
sVUniFriend
p477
I0
sg384
g25
(g29
g30
(dp478
g32
g22
sg33
g34
sg35
g34
sg36
I0
sg37
I0
sg38
g25
(g26
g27
(lp479
tp480
Rp481
I1
bsg42
g43
sg44
g43
sg45
I3413407412
sg46
I0
sg47
I0
sg48
g34
sg49
g34
sg50
g43
sg51
g43
sg52
I0
sg53
I0
sg54
I1
sg55
g34
sg56
I0
sg57
I0
sg58
I0
sg59
I0
sg60
g34
sg61
g43
sg62
I0
sg63
g64
sg65
g43
sg66
g67
sg68
I0
sg69
I0
sg70
I0
stp482
Rp483
I1
bsVMemberList
p484
g25
(g26
g27
(lp485
tp486
Rp487
I1
bsVPYQuanPin
p488
g43
sVRemarkPYInitial
p489
g43
sVSex
p490
I0
sVAppAccountFlag
p491
I0
sVVerifyFlag
p492
I0
sVProvince
p493
g43
sVKeyWord
p494
g43
sVRemarkName
p495
g43
sVPYInitial
p496
g43
sVIsOwner
p497
I0
sVChatRoomId
p498
I0
sVHideInputBarFlag
p499
I0
sVEncryChatRoomId
p500
g43
sVAttrStatus
p501
I0
sVSnsFlag
p502
I0
sVMemberCount
p503
I8
sVOwnerUin
p504
I0
sVAlias
p505
g43
sg413
NsVSignature
p506
g43
sVContactFlag
p507
I2
sVNickName
p508
V\u7ea2\u5305\u96e8
p509
sVRemarkPYQuanPin
p510
g43
sVHeadImgUrl
p511
V/cgi-bin/mmwebwx-bin/webwxgetheadimg?seq=603850892&username=@@8f02852d7dc6bbe882197f834f0fe95377646257712275c7e5292d269b37f71d&skey=@crypt_bda10ae4_993456bcff7991448369563840006ea2
p512
sVUin
p513
I0
sVStarFriend
p514
I0
sVStatues
p515
I1
stp516
Rp517
I1
bag25
(g377
g30
(dp518
VUserName
p519
V@@6408ae46c62c6495b39348bf791117dc1f9048b1900b93494c414aea8151066b
p520
sVCity
p521
g43
sVDisplayName
p522
g43
sVUniFriend
p523
I0
sg384
g25
(g29
g30
(dp524
g32
g22
sg33
g34
sg35
g34
sg36
I0
sg37
I0
sg38
g25
(g26
g27
(lp525
tp526
Rp527
I1
bsg42
g43
sg44
g43
sg45
I3413407412
sg46
I0
sg47
I0
sg48
g34
sg49
g34
sg50
g43
sg51
g43
sg52
I0
sg53
I0
sg54
I1
sg55
g34
sg56
I0
sg57
I0
sg58
I0
sg59
I0
sg60
g34
sg61
g43
sg62
I0
sg63
g64
sg65
g43
sg66
g67
sg68
I0
sg69
I0
sg70
I0
stp528
Rp529
I1
bsVMemberList
p530
g25
(g26
g27
(lp531
tp532
Rp533
I1
bsVPYQuanPin
p534
g43
sVRemarkPYInitial
p535
g43
sVSex
p536
I0
sVAppAccountFlag
p537
I0
sVVerifyFlag
p538
I0
sVProvince
p539
g43
sVKeyWord
p540
g43
sVRemarkName
p541
g43
sVPYInitial
p542
g43
sVIsOwner
p543
I0
sVChatRoomId
p544
I0
sVHideInputBarFlag
p545
I0
sVEncryChatRoomId
p546
g43
sVAttrStatus
p547
I0
sVSnsFlag
p548
I0
sVMemberCount
p549
I3
sVOwnerUin
p550
I0
sVAlias
p551
g43
sg413
NsVSignature
p552
g43
sVContactFlag
p553
I0
sVNickName
p554
VYat3s,echo\u5c0f\u840c,Aran
p555
sVRemarkPYQuanPin
p556
g43
sVHeadImgUrl
p557
V/cgi-bin/mmwebwx-bin/webwxgetheadimg?seq=0&username=@@6408ae46c62c6495b39348bf791117dc1f9048b1900b93494c414aea8151066b&skey=@crypt_bda10ae4_993456bcff7991448369563840006ea2
p558
sVUin
p559
I0
sVStarFriend
p560
I0
sVStatues
p561
I1
stp562
Rp563
I1
bag25
(g377
g30
(dp564
VUserName
p565
V@@a97d72fcd449ec006e093540349219b298206f23bfc321a4c55345ca60e72498
p566
sVCity
p567
g43
sVDisplayName
p568
g43
sVUniFriend
p569
I0
sg384
g25
(g29
g30
(dp570
g32
g22
sg33
g34
sg35
g34
sg36
I0
sg37
I0
sg38
g25
(g26
g27
(lp571
tp572
Rp573
I1
bsg42
g43
sg44
g43
sg45
I3413407412
sg46
I0
sg47
I0
sg48
g34
sg49
g34
sg50
g43
sg51
g43
sg52
I0
sg53
I0
sg54
I1
sg55
g34
sg56
I0
sg57
I0
sg58
I0
sg59
I0
sg60
g34
sg61
g43
sg62
I0
sg63
g64
sg65
g43
sg66
g67
sg68
I0
sg69
I0
sg70
I0
stp574
Rp575
I1
bsVMemberList
p576
g25
(g26
g27
(lp577
tp578
Rp579
I1
bsVPYQuanPin
p580
g43
sVRemarkPYInitial
p581
g43
sVSex
p582
I0
sVAppAccountFlag
p583
I0
sVVerifyFlag
p584
I0
sVProvince
p585
g43
sVKeyWord
p586
g43
sVRemarkName
p587
g43
sVPYInitial
p588
g43
sVIsOwner
p589
I0
sVChatRoomId
p590
I0
sVHideInputBarFlag
p591
I0
sVEncryChatRoomId
p592
g43
sVAttrStatus
p593
I0
sVSnsFlag
p594
I0
sVMemberCount
p595
I3
sVOwnerUin
p596
I0
sVAlias
p597
g43
sg413
NsVSignature
p598
g43
sVContactFlag
p599
I0
sVNickName
p600
VTsui.,Yat3s,Aran
p601
sVRemarkPYQuanPin
p602
g43
sVHeadImgUrl
p603
V/cgi-bin/mmwebwx-bin/webwxgetheadimg?seq=0&username=@@a97d72fcd449ec006e093540349219b298206f23bfc321a4c55345ca60e72498&skey=@crypt_bda10ae4_993456bcff7991448369563840006ea2
p604
sVUin
p605
I0
sVStarFriend
p606
I0
sVStatues
p607
I1
stp608
Rp609
I1
batp610
Rp611
I1
bsS'nickName'
p612
g64
sS'mpList'
p613
g25
(g26
g27
(lp614
g25
(cchatcore.storage.templates
MassivePlatform
p615
g30
(dp616
VUserName
p617
V@258a86fab1cab6e142817ce4039aa7d7
p618
sVCity
p619
V\u5e7f\u5dde
p620
sVSnsFlag
p621
I0
sVDisplayName
p622
g43
sVUniFriend
p623
I0
sVMemberCount
p624
I0
sVOwnerUin
p625
I0
sVMemberList
p626
g41
sVAlias
p627
g43
sVPYQuanPin
p628
Vgongzhongpingtaianquanzhushou
p629
sVSignature
p630
V\u63d0\u4f9b\u5fae\u4fe1\u516c\u4f17\u53f7\u767b\u5f55\u548c\u7fa4\u53d1\u7b49\u5b89\u5168\u64cd\u4f5c\uff0c\u5728\u624b\u673a\u4e0a\u67e5\u6536\u6d88\u606f\u3001\u8bc4\u8bba\u3001\u8d5e\u8d4f\uff0c\u65b0\u5efa\u7fa4\u53d1\u548c\u67e5\u770b\u7fa4\u53d1\u5386\u53f2\u3002
p631
sVRemarkPYInitial
p632
g43
sVContactFlag
p633
I3
sVUin
p634
I0
sVNickName
p635
V\u516c\u4f17\u5e73\u53f0\u5b89\u5168\u52a9\u624b
p636
sVAppAccountFlag
p637
I0
sVVerifyFlag
p638
I24
sVRemarkPYQuanPin
p639
g43
sVHeadImgUrl
p640
V/cgi-bin/mmwebwx-bin/webwxgeticon?seq=600880067&username=@258a86fab1cab6e142817ce4039aa7d7&skey=@crypt_bda10ae4_993456bcff7991448369563840006ea2
p641
sVKeyWord
p642
Vmph
p643
sVProvince
p644
V\u5e7f\u4e1c
p645
sVPYInitial
p646
VGZPTAQZS
p647
sVRemarkName
p648
g43
sVIsOwner
p649
I0
sVSex
p650
I0
sVStarFriend
p651
I0
sVHideInputBarFlag
p652
I0
sVChatRoomId
p653
I0
sVEncryChatRoomId
p654
g43
sVAttrStatus
p655
I98459
sVStatues
p656
I0
stp657
Rp658
I1
bag25
(g615
g30
(dp659
VUserName
p660
V@8a68c9bba3074a977cd30210cee86423
p661
sVCity
p662
V\u897f\u57ce
p663
sVSnsFlag
p664
I0
sVDisplayName
p665
g43
sVUniFriend
p666
I0
sVMemberCount
p667
I0
sVOwnerUin
p668
I0
sVMemberList
p669
g41
sVAlias
p670
VChinaUnicom800010010
p671
sVPYQuanPin
p672
Vzhongguoliantong
p673
sVSignature
p674
V\u4e2d\u56fd\u8054\u901a\u5fae\u4fe1\u8425\u4e1a\u5385\uff0c\u4fbf\u6377\u968f\u8eab\uff0c\u67e5\u8be2\u529e\u7406\u4e00\u952e\u641e\u5b9a\uff0c\u8fd8\u6709\u5ba2\u670dMM\u8d34\u5fc3\u89e3\u5fe7\uff0c\u66f4\u591a\u8d44\u8baf\u63a8\u8350\u4e0e\u60a8\u5206\u4eab\u3002\u656c\u8bf7\u5149\u4e34\uff0c\u671f\u5f85\u60ca\u559c\uff01
p675
sVRemarkPYInitial
p676
g43
sVContactFlag
p677
I3
sVUin
p678
I0
sVNickName
p679
V\u4e2d\u56fd\u8054\u901a
p680
sVAppAccountFlag
p681
I0
sVVerifyFlag
p682
I24
sVRemarkPYQuanPin
p683
g43
sVHeadImgUrl
p684
V/cgi-bin/mmwebwx-bin/webwxgeticon?seq=603850307&username=@8a68c9bba3074a977cd30210cee86423&skey=@crypt_bda10ae4_993456bcff7991448369563840006ea2
p685
sVKeyWord
p686
Vgh_
p687
sVProvince
p688
V\u5317\u4eac
p689
sVPYInitial
p690
VZGLT
p691
sVRemarkName
p692
g43
sVIsOwner
p693
I0
sVSex
p694
I0
sVStarFriend
p695
I0
sVHideInputBarFlag
p696
I0
sVChatRoomId
p697
I0
sVEncryChatRoomId
p698
g43
sVAttrStatus
p699
I0
sVStatues
p700
I0
stp701
Rp702
I1
batp703
Rp704
I1
bssS'loginInfo'
p705
(dp706
S'SyncKey'
p707
(dp708
VCount
p709
I4
sVList
p710
(lp711
(dp712
VVal
p713
I603851406
sVKey
p714
I1
sa(dp715
VVal
p716
I603852187
sVKey
p717
I2
sa(dp718
VVal
p719
I603851910
sVKey
p720
I3
sa(dp721
VVal
p722
I1493190927
sVKey
p723
I1000
sassS'syncUrl'
p724
S'https://webpush.wx2.qq.com/cgi-bin/mmwebwx-bin'
p725
sS'skey'
p726
V@crypt_bda10ae4_993456bcff7991448369563840006ea2
p727
sS'wxuin'
p728
V3413407412
p729
sS'synckey'
p730
S'1_603851406|2_603852187|3_603851910|1000_1493190927'
p731
sS'url'
p732
Vhttps://wx2.qq.com/cgi-bin/mmwebwx-bin
p733
sS'pass_ticket'
p734
V2l%2BJ6i3ju5%2BPphp6Wpb77kfLsRnGulBRjOS%2FvgFft71M7SWhJeLACcyU0MzSMLj5
p735
sS'wxsid'
p736
VgsK/ZMNx1DubdB91
p737
sS'InviteStartCount'
p738
I40
sS'deviceid'
p739
S'e381372518854031'
p740
sS'fileUrl'
p741
S'https://file.wx2.qq.com/cgi-bin/mmwebwx-bin'
p742
sS'BaseRequest'
p743
(dp744
g45
g729
sS'Skey'
p745
g727
sS'DeviceID'
p746
g735
sS'Sid'
p747
g737
ssS'User'
p748
g25
(g29
g30
(dp749
g32
g22
sg33
g34
sg35
g34
sg36
I0
sg38
g41
sg42
g43
sg44
g43
sg68
I0
sg46
I0
sg47
I0
sg48
g34
sg49
g34
sg50
g43
sg51
g43
sg52
I0
sg53
I0
sg54
I1
sg55
g34
sg56
I0
sg59
I0
sg57
I0
sg58
I0
sg37
I0
sg60
g34
sg61
g43
sg62
I0
sg63
g64
sg65
g43
sg66
g67
sg45
I3413407412
sg69
I0
sg70
I0
stp750
Rp751
I1
bss.