(dp0
S'cookies'
p1
(dp2
S'webwx_data_ticket'
p3
S'gSc9sBHl40E3/AsMSHigLt74'
p4
sS'wxuin'
p5
S'3413407412'
p6
sS'webwxuvid'
p7
S'41520c81ebbb9c0f70a7094c1f9c9176e4091e27c8c21ae23abea9e8eb5e46f281ca79188377c1f2172acda3b637dd64'
p8
sS'webwx_auth_ticket'
p9
S'CIsBEMf50tkCGoAB6pYh/HhmlF2uz2aM3h9YKsrb8crHWhK3OA/2sycGh0lQlfhdd9hvlixaxKzuO7yY4JagZBgUvEaEZ/BBGSoSQLEc4augePCpYSWNBAWlZt7U9Y6erR/l0+C/U3Wqh7QqML6S/20zoqn43/GPhe6VxsLvzhQftLnqHqWa04yK2nI='
p10
sS'wxloadtime'
p11
S'1493556815'
p12
sS'wxsid'
p13
S'6j1j5pHs409J8ieQ'
p14
sS'mm_lang'
p15
S'zh_CN'
p16
ssS'version'
p17
S'1.3.5'
p18
sS'storage'
p19
(dp20
S'userName'
p21
V@32971932b04b092b865e1f4b9442007dff93ea25af8f918c2c5f57d570e5c544
p22
sS'lastInputUserName'
p23
NsS'memberList'
p24
ccopy_reg
_reconstructor
p25
(cchatcore.storage.templates
ContactList
p26
c__builtin__
list
p27
(lp28
g25
(cchatcore.storage.templates
User
p29
c__builtin__
dict
p30
(dp31
S'UserName'
p32
g22
sS'City'
p33
S''
p34
sS'DisplayName'
p35
g34
sS'UniFriend'
p36
I0
sS'OwnerUin'
p37
I0
sS'MemberList'
p38
g25
(g26
g27
(lp39
tp40
Rp41
I1
bsS'PYQuanPin'
p42
V
p43
sS'RemarkPYInitial'
p44
g43
sS'Uin'
p45
I3413407412
sS'AppAccountFlag'
p46
I0
sS'VerifyFlag'
p47
I0
sS'Province'
p48
g34
sS'KeyWord'
p49
g34
sS'RemarkName'
p50
g43
sS'PYInitial'
p51
g43
sS'ChatRoomId'
p52
I0
sS'HideInputBarFlag'
p53
I0
sVHeadImgFlag
p54
I1
sS'EncryChatRoomId'
p55
g34
sS'AttrStatus'
p56
I0
sS'SnsFlag'
p57
I0
sS'MemberCount'
p58
I0
sVWebWxPluginSwitch
p59
I0
sS'Alias'
p60
g34
sS'Signature'
p61
g43
sS'ContactFlag'
p62
I0
sS'NickName'
p63
VAran
p64
sS'RemarkPYQuanPin'
p65
g43
sS'HeadImgUrl'
p66
V/cgi-bin/mmwebwx-bin/webwxgeticon?seq=1643945533&username=@32971932b04b092b865e1f4b9442007dff93ea25af8f918c2c5f57d570e5c544&skey=@crypt_bda10ae4_b652e7d0f30e94a581414e6eb54b728b
p67
sS'Sex'
p68
I0
sS'StarFriend'
p69
I0
sS'Statues'
p70
I0
stp71
Rp72
I1
bag25
(g29
g30
(dp73
VUserName
p74
V@f4dd4c839c3c205936f41a6f9c251c1bea6150db72d3c0f15f7ec2edbc9ee997
p75
sVCity
p76
V\u671d\u9633
p77
sVSnsFlag
p78
I17
sVDisplayName
p79
g43
sVUniFriend
p80
I0
sVMemberCount
p81
I0
sVOwnerUin
p82
I0
sVMemberList
p83
g41
sVAlias
p84
g43
sVPYQuanPin
p85
VKerry
p86
sVSignature
p87
V\u4ee5\u68a6\u4e3a\u9a6c\uff0c\u4e0d\u8d1f\u97f6\u534e
p88
sVRemarkPYInitial
p89
g43
sVContactFlag
p90
I3
sVUin
p91
I0
sVNickName
p92
VKerry
p93
sVAppAccountFlag
p94
I0
sVVerifyFlag
p95
I0
sVRemarkPYQuanPin
p96
g43
sVHeadImgUrl
p97
V/cgi-bin/mmwebwx-bin/webwxgeticon?seq=603850763&username=@f4dd4c839c3c205936f41a6f9c251c1bea6150db72d3c0f15f7ec2edbc9ee997&skey=@crypt_bda10ae4_b652e7d0f30e94a581414e6eb54b728b
p98
sVKeyWord
p99
g43
sVProvince
p100
V\u5317\u4eac
p101
sVPYInitial
p102
VKERRY
p103
sVRemarkName
p104
g43
sVIsOwner
p105
I0
sVSex
p106
I2
sVStarFriend
p107
I0
sVHideInputBarFlag
p108
I0
sVChatRoomId
p109
I0
sVEncryChatRoomId
p110
g43
sVAttrStatus
p111
I33674359
sVStatues
p112
I0
stp113
Rp114
I1
bag25
(g29
g30
(dp115
VUserName
p116
V@abcbc3fcaf4118fca6f1a3f59b8948c7fb6906fbbb7162488993308ce209826d
p117
sVCity
p118
V\u8d63\u5dde
p119
sVSnsFlag
p120
I49
sVDisplayName
p121
g43
sVUniFriend
p122
I0
sVMemberCount
p123
I0
sVOwnerUin
p124
I0
sVMemberList
p125
g41
sVAlias
p126
g43
sVPYQuanPin
p127
Vxiaoliao15807504515
p128
sVSignature
p129
V\u4e0b\u8f88\u5b50\u6295\u80ce\u505a\u4e2a\u7537\u4eba\uff0c\u5a36\u4e2a\u50cf\u6211\u8fd9\u6837\u7684\u5973\u4eba\U0001f64815807504515
p130
sVRemarkPYInitial
p131
VELAINE
p132
sVContactFlag
p133
I3
sVUin
p134
I0
sVNickName
p135
V\u5c0f\u5ed6 15807504515
p136
sVAppAccountFlag
p137
I0
sVVerifyFlag
p138
I0
sVRemarkPYQuanPin
p139
VElaine
p140
sVHeadImgUrl
p141
V/cgi-bin/mmwebwx-bin/webwxgeticon?seq=603850127&username=@abcbc3fcaf4118fca6f1a3f59b8948c7fb6906fbbb7162488993308ce209826d&skey=@crypt_bda10ae4_b652e7d0f30e94a581414e6eb54b728b
p142
sVKeyWord
p143
g43
sVProvince
p144
V\u6c5f\u897f
p145
sVPYInitial
p146
VXL15807504515
p147
sVRemarkName
p148
VElaine
p149
sVIsOwner
p150
I0
sVSex
p151
I2
sVStarFriend
p152
I0
sVHideInputBarFlag
p153
I0
sVChatRoomId
p154
I0
sVEncryChatRoomId
p155
g43
sVAttrStatus
p156
I69669
sVStatues
p157
I0
stp158
Rp159
I1
bag25
(g29
g30
(dp160
VUserName
p161
V@ffc9130ab99caf3edfb9c835c562b38c86a20142b7887e9de2c7f5759c42c4ac
p162
sVCity
p163
V\u4e1c\u57ce
p164
sVSnsFlag
p165
I49
sVDisplayName
p166
g43
sVUniFriend
p167
I0
sVMemberCount
p168
I0
sVOwnerUin
p169
I0
sVMemberList
p170
g41
sVAlias
p171
g43
sVPYQuanPin
p172
VYat3s
p173
sVSignature
p174
V\u4e00\u53ea\u7231\u73a9\u7684\u7a0b\u5e8f\u6c6a<span class="emoji emoji1f436"></span>
p175
sVRemarkPYInitial
p176
g43
sVContactFlag
p177
I3
sVUin
p178
I0
sVNickName
p179
VYat3s
p180
sVAppAccountFlag
p181
I0
sVVerifyFlag
p182
I0
sVRemarkPYQuanPin
p183
g43
sVHeadImgUrl
p184
V/cgi-bin/mmwebwx-bin/webwxgeticon?seq=603850332&username=@ffc9130ab99caf3edfb9c835c562b38c86a20142b7887e9de2c7f5759c42c4ac&skey=@crypt_bda10ae4_b652e7d0f30e94a581414e6eb54b728b
p185
sVKeyWord
p186
g43
sVProvince
p187
V\u5317\u4eac
p188
sVPYInitial
p189
VYAT3S
p190
sVRemarkName
p191
g43
sVIsOwner
p192
I0
sVSex
p193
I1
sVStarFriend
p194
I0
sVHideInputBarFlag
p195
I0
sVChatRoomId
p196
I0
sVEncryChatRoomId
p197
g43
sVAttrStatus
p198
I37851239
sVStatues
p199
I0
stp200
Rp201
I1
bag25
(g29
g30
(dp202
VUserName
p203
V@2753888cab08bb1d5ed0900c63030dc15144a5f90a87ba300ae19d5abcd34104
p204
sVCity
p205
g43
sVSnsFlag
p206
I17
sVDisplayName
p207
g43
sVUniFriend
p208
I0
sVMemberCount
p209
I0
sVOwnerUin
p210
I0
sVMemberList
p211
g41
sVAlias
p212
g43
sVPYQuanPin
p213
Vspanclassemojiemoji1f33espancaoyispanclassemojiemoji1f33espan
p214
sVSignature
p215
V\u6709\u82b1\u6709\u6708\u6709\u697c\u53f0 \u4e0d\u98ce\u6d41\u5904\u4e5f\u98ce\u6d41
p216
sVRemarkPYInitial
p217
g43
sVContactFlag
p218
I3
sVUin
p219
I0
sVNickName
p220
V\U0001f33e\u8349\u4e59\U0001f33e
p221
sVAppAccountFlag
p222
I0
sVVerifyFlag
p223
I0
sVRemarkPYQuanPin
p224
g43
sVHeadImgUrl
p225
V/cgi-bin/mmwebwx-bin/webwxgeticon?seq=603850966&username=@2753888cab08bb1d5ed0900c63030dc15144a5f90a87ba300ae19d5abcd34104&skey=@crypt_bda10ae4_b652e7d0f30e94a581414e6eb54b728b
p226
sVKeyWord
p227
g43
sVProvince
p228
g43
sVPYInitial
p229
VSPANCLASSEMOJIEMOJI1F33ESPANCYSPANCLASSEMOJIEMOJI1F33ESPAN
p230
sVRemarkName
p231
g43
sVIsOwner
p232
I0
sVSex
p233
I2
sVStarFriend
p234
I0
sVHideInputBarFlag
p235
I0
sVChatRoomId
p236
I0
sVEncryChatRoomId
p237
g43
sVAttrStatus
p238
I33785893
sVStatues
p239
I0
stp240
Rp241
I1
bag25
(g29
g30
(dp242
VUserName
p243
V@f875225f1a58f5370c760bf9156162a8
p244
sVCity
p245
V\u8475\u9752\u533a
p246
sVSnsFlag
p247
I49
sVDisplayName
p248
g43
sVUniFriend
p249
I0
sVMemberCount
p250
I0
sVOwnerUin
p251
I0
sVMemberList
p252
g41
sVAlias
p253
g43
sVPYQuanPin
p254
Vspanclassemojiemoji1f335spanyezhier
p255
sVSignature
p256
V\u65f6\u5149\u6f2b\u957f\uff0c\u6709\u6211\u522b\u614c\u3002<span class="emoji emoji1f618"></span>
p257
sVRemarkPYInitial
p258
g43
sVContactFlag
p259
I3
sVUin
p260
I0
sVNickName
p261
V\U0001f335\u6930\u6c41\u513f
p262
sVAppAccountFlag
p263
I0
sVVerifyFlag
p264
I0
sVRemarkPYQuanPin
p265
g43
sVHeadImgUrl
p266
V/cgi-bin/mmwebwx-bin/webwxgeticon?seq=603850968&username=@f875225f1a58f5370c760bf9156162a8&skey=@crypt_bda10ae4_b652e7d0f30e94a581414e6eb54b728b
p267
sVKeyWord
p268
Vyev
p269
sVProvince
p270
V\u9999\u6e2f
p271
sVPYInitial
p272
VSPANCLASSEMOJIEMOJI1F335SPANYZE
p273
sVRemarkName
p274
g43
sVIsOwner
p275
I0
sVSex
p276
I2
sVStarFriend
p277
I0
sVHideInputBarFlag
p278
I0
sVChatRoomId
p279
I0
sVEncryChatRoomId
p280
g43
sVAttrStatus
p281
I67623
sVStatues
p282
I0
stp283
Rp284
I1
bag25
(g29
g30
(dp285
VUserName
p286
V@98801d6edd878c16420188032e1e3a938d291161a09ab43c5151b6beaf7a3037
p287
sVCity
p288
g43
sVSnsFlag
p289
I17
sVDisplayName
p290
g43
sVUniFriend
p291
I0
sVMemberCount
p292
I0
sVOwnerUin
p293
I0
sVMemberList
p294
g41
sVAlias
p295
g43
sVPYQuanPin
p296
Vxiaodeqiu
p297
sVSignature
p298
V\u5b66\u800c\u4e0d\u601d\u5219\u7f54\uff0c\u54c8\u54c8
p299
sVRemarkPYInitial
p300
g43
sVContactFlag
p301
I3
sVUin
p302
I0
sVNickName
p303
V\u5c0f\u5730\u7403
p304
sVAppAccountFlag
p305
I0
sVVerifyFlag
p306
I0
sVRemarkPYQuanPin
p307
g43
sVHeadImgUrl
p308
V/cgi-bin/mmwebwx-bin/webwxgeticon?seq=603851078&username=@98801d6edd878c16420188032e1e3a938d291161a09ab43c5151b6beaf7a3037&skey=@crypt_bda10ae4_b652e7d0f30e94a581414e6eb54b728b
p309
sVKeyWord
p310
g43
sVProvince
p311
VFrankfurt
p312
sVPYInitial
p313
VXDQ
p314
sVRemarkName
p315
g43
sVIsOwner
p316
I0
sVSex
p317
I1
sVStarFriend
p318
I0
sVHideInputBarFlag
p319
I0
sVChatRoomId
p320
I0
sVEncryChatRoomId
p321
g43
sVAttrStatus
p322
I33789989
sVStatues
p323
I0
stp324
Rp325
I1
bag25
(g29
g30
(dp326
VUserName
p327
V@ee759e6009d27d72fb4a7efebb8dd868c3c4acbd32d9f3ee6b03d8ef30622fbf
p328
sVCity
p329
g43
sVSnsFlag
p330
I49
sVDisplayName
p331
g43
sVUniFriend
p332
I0
sVMemberCount
p333
I0
sVOwnerUin
p334
I0
sVMemberList
p335
g41
sVAlias
p336
g43
sVPYQuanPin
p337
Vechoxiaomeng
p338
sVSignature
p339
V\u65e2\u7136\u7434\u745f\u8d77
p340
sVRemarkPYInitial
p341
g43
sVContactFlag
p342
I3
sVUin
p343
I0
sVNickName
p344
Vecho\u5c0f\u840c
p345
sVAppAccountFlag
p346
I0
sVVerifyFlag
p347
I0
sVRemarkPYQuanPin
p348
g43
sVHeadImgUrl
p349
V/cgi-bin/mmwebwx-bin/webwxgeticon?seq=603851910&username=@ee759e6009d27d72fb4a7efebb8dd868c3c4acbd32d9f3ee6b03d8ef30622fbf&skey=@crypt_bda10ae4_b652e7d0f30e94a581414e6eb54b728b
p350
sVKeyWord
p351
g43
sVProvince
p352
V\u5317\u4eac
p353
sVPYInitial
p354
VECHOXM
p355
sVRemarkName
p356
g43
sVIsOwner
p357
I0
sVSex
p358
I2
sVStarFriend
p359
I0
sVHideInputBarFlag
p360
I0
sVChatRoomId
p361
I0
sVEncryChatRoomId
p362
g43
sVAttrStatus
p363
I67224677
sVStatues
p364
I0
stp365
Rp366
I1
bag25
(g29
g30
(dp367
VUserName
p368
V@dd55e95aa27b896e31b6f3aab3a474787e6221a6843bf1ef5b330dc9e72d6c49
p369
sVCity
p370
g43
sVSnsFlag
p371
I17
sVDisplayName
p372
g43
sVUniFriend
p373
I0
sVMemberCount
p374
I0
sVOwnerUin
p375
I0
sVMemberList
p376
g41
sVAlias
p377
g43
sVPYQuanPin
p378
Vmeiguishilichunfeng
p379
sVSignature
p380
V\u800c\u4eca\u6811\u58ee\u5fd7        \u4ee5\u5f85\u626c\u56fd\u5a01
p381
sVRemarkPYInitial
p382
g43
sVContactFlag
p383
I3
sVUin
p384
I0
sVNickName
p385
V[\u73ab\u7470]\u5341\u91cc\u6625\u98ce
p386
sVAppAccountFlag
p387
I0
sVVerifyFlag
p388
I0
sVRemarkPYQuanPin
p389
g43
sVHeadImgUrl
p390
V/cgi-bin/mmwebwx-bin/webwxgeticon?seq=603852839&username=@dd55e95aa27b896e31b6f3aab3a474787e6221a6843bf1ef5b330dc9e72d6c49&skey=@crypt_bda10ae4_b652e7d0f30e94a581414e6eb54b728b
p391
sVKeyWord
p392
g43
sVProvince
p393
VParis
p394
sVPYInitial
p395
VMGSLCF
p396
sVRemarkName
p397
g43
sVIsOwner
p398
I0
sVSex
p399
I1
sVStarFriend
p400
I0
sVHideInputBarFlag
p401
I0
sVChatRoomId
p402
I0
sVEncryChatRoomId
p403
g43
sVAttrStatus
p404
I102439
sVStatues
p405
I0
stp406
Rp407
I1
bag25
(g29
g30
(dp408
VUserName
p409
V@c268dc834d8f9bbc27142a8b02e549a0
p410
sVCity
p411
V\u671d\u9633
p412
sVSnsFlag
p413
I49
sVDisplayName
p414
g43
sVUniFriend
p415
I0
sVMemberCount
p416
I0
sVOwnerUin
p417
I0
sVMemberList
p418
g41
sVAlias
p419
g43
sVPYQuanPin
p420
Vspanclassemojiemoji1f343span
p421
sVSignature
p422
V<span class="emoji emoji2708"></span>\ufe0f
p423
sVRemarkPYInitial
p424
g43
sVContactFlag
p425
I3
sVUin
p426
I0
sVNickName
p427
V\U0001f343
p428
sVAppAccountFlag
p429
I0
sVVerifyFlag
p430
I0
sVRemarkPYQuanPin
p431
g43
sVHeadImgUrl
p432
V/cgi-bin/mmwebwx-bin/webwxgeticon?seq=606870188&username=@c268dc834d8f9bbc27142a8b02e549a0&skey=@crypt_bda10ae4_b652e7d0f30e94a581414e6eb54b728b
p433
sVKeyWord
p434
VYE1
p435
sVProvince
p436
V\u5317\u4eac
p437
sVPYInitial
p438
VSPANCLASSEMOJIEMOJI1F343SPAN
p439
sVRemarkName
p440
g43
sVIsOwner
p441
I0
sVSex
p442
I2
sVStarFriend
p443
I0
sVHideInputBarFlag
p444
I0
sVChatRoomId
p445
I0
sVEncryChatRoomId
p446
g43
sVAttrStatus
p447
I229863
sVStatues
p448
I0
stp449
Rp450
I1
batp451
Rp452
I1
bsS'chatroomList'
p453
g25
(g26
g27
(lp454
g25
(cchatcore.storage.templates
Chatroom
p455
g30
(dp456
VUserName
p457
V@@cdd2d2e4b9fb87930a0a181b87abd7fd06d7fef3d7b87a2943c678760919c403
p458
sVCity
p459
g43
sVDisplayName
p460
g43
sVUniFriend
p461
I0
sS'Self'
p462
g25
(g29
g30
(dp463
g32
g22
sg33
g34
sg35
g34
sg36
I0
sg37
I0
sg38
g25
(g26
g27
(lp464
tp465
Rp466
I1
bsg42
g43
sg44
g43
sg45
I3413407412
sg46
I0
sg47
I0
sg48
g34
sg49
g34
sg50
g43
sg51
g43
sg52
I0
sg53
I0
sg54
I1
sg55
g34
sg56
I0
sg57
I0
sg58
I0
sg59
I0
sg60
g34
sg61
g43
sg62
I0
sg63
g64
sg65
g43
sg66
g67
sg68
I0
sg69
I0
sg70
I0
stp467
Rp468
I1
bsVMemberList
p469
g25
(g26
g27
(lp470
tp471
Rp472
I1
bsVPYQuanPin
p473
g43
sVRemarkPYInitial
p474
g43
sVSex
p475
I0
sVAppAccountFlag
p476
I0
sVVerifyFlag
p477
I0
sVProvince
p478
g43
sVKeyWord
p479
g43
sVRemarkName
p480
g43
sVPYInitial
p481
g43
sVIsOwner
p482
I0
sVChatRoomId
p483
I0
sVHideInputBarFlag
p484
I0
sVEncryChatRoomId
p485
g43
sVAttrStatus
p486
I0
sVSnsFlag
p487
I0
sVMemberCount
p488
I3
sVOwnerUin
p489
I0
sVAlias
p490
g43
sS'IsAdmin'
p491
NsVSignature
p492
g43
sVContactFlag
p493
I0
sVNickName
p494
VYat3s,echo\u5c0f\u840c,Aran
p495
sVRemarkPYQuanPin
p496
g43
sVHeadImgUrl
p497
V/cgi-bin/mmwebwx-bin/webwxgetheadimg?seq=0&username=@@cdd2d2e4b9fb87930a0a181b87abd7fd06d7fef3d7b87a2943c678760919c403&skey=@crypt_bda10ae4_b652e7d0f30e94a581414e6eb54b728b
p498
sVUin
p499
I0
sVStarFriend
p500
I0
sVStatues
p501
I1
stp502
Rp503
I1
bag25
(g455
g30
(dp504
VUserName
p505
V@@561b6a7eea488b6cf933d2677bdc8f8eb5eb05b1ac91f231b2884483beb92797
p506
sVCity
p507
g43
sVDisplayName
p508
g43
sVUniFriend
p509
I0
sg462
g25
(g29
g30
(dp510
g32
g22
sg33
g34
sg35
g34
sg36
I0
sg37
I0
sg38
g25
(g26
g27
(lp511
tp512
Rp513
I1
bsg42
g43
sg44
g43
sg45
I3413407412
sg46
I0
sg47
I0
sg48
g34
sg49
g34
sg50
g43
sg51
g43
sg52
I0
sg53
I0
sg54
I1
sg55
g34
sg56
I0
sg57
I0
sg58
I0
sg59
I0
sg60
g34
sg61
g43
sg62
I0
sg63
g64
sg65
g43
sg66
g67
sg68
I0
sg69
I0
sg70
I0
stp514
Rp515
I1
bsVMemberList
p516
g25
(g26
g27
(lp517
tp518
Rp519
I1
bsVPYQuanPin
p520
g43
sVRemarkPYInitial
p521
g43
sVSex
p522
I0
sVAppAccountFlag
p523
I0
sVVerifyFlag
p524
I0
sVProvince
p525
g43
sVKeyWord
p526
g43
sVRemarkName
p527
g43
sVPYInitial
p528
g43
sVIsOwner
p529
I0
sVChatRoomId
p530
I0
sVHideInputBarFlag
p531
I0
sVEncryChatRoomId
p532
g43
sVAttrStatus
p533
I0
sVSnsFlag
p534
I0
sVMemberCount
p535
I8
sVOwnerUin
p536
I0
sVAlias
p537
g43
sg491
NsVSignature
p538
g43
sVContactFlag
p539
I2
sVNickName
p540
V\u7ea2\u5305\u96e8
p541
sVRemarkPYQuanPin
p542
g43
sVHeadImgUrl
p543
V/cgi-bin/mmwebwx-bin/webwxgetheadimg?seq=603850892&username=@@561b6a7eea488b6cf933d2677bdc8f8eb5eb05b1ac91f231b2884483beb92797&skey=@crypt_bda10ae4_b652e7d0f30e94a581414e6eb54b728b
p544
sVUin
p545
I0
sVStarFriend
p546
I0
sVStatues
p547
I1
stp548
Rp549
I1
bag25
(g455
g30
(dp550
VUserName
p551
V@@fa7876da1f3e660636722f1f751108abc99208aa8b9e1d4a67978301699c3076
p552
sVCity
p553
g43
sVDisplayName
p554
g43
sVUniFriend
p555
I0
sg462
g25
(g29
g30
(dp556
g32
g22
sg33
g34
sg35
g34
sg36
I0
sg37
I0
sg38
g25
(g26
g27
(lp557
tp558
Rp559
I1
bsg42
g43
sg44
g43
sg45
I3413407412
sg46
I0
sg47
I0
sg48
g34
sg49
g34
sg50
g43
sg51
g43
sg52
I0
sg53
I0
sg54
I1
sg55
g34
sg56
I0
sg57
I0
sg58
I0
sg59
I0
sg60
g34
sg61
g43
sg62
I0
sg63
g64
sg65
g43
sg66
g67
sg68
I0
sg69
I0
sg70
I0
stp560
Rp561
I1
bsVMemberList
p562
g25
(g26
g27
(lp563
tp564
Rp565
I1
bsVPYQuanPin
p566
g43
sVRemarkPYInitial
p567
g43
sVSex
p568
I0
sVAppAccountFlag
p569
I0
sVVerifyFlag
p570
I0
sVProvince
p571
g43
sVKeyWord
p572
g43
sVRemarkName
p573
g43
sVPYInitial
p574
g43
sVIsOwner
p575
I0
sVChatRoomId
p576
I0
sVHideInputBarFlag
p577
I0
sVEncryChatRoomId
p578
g43
sVAttrStatus
p579
I0
sVSnsFlag
p580
I0
sVMemberCount
p581
I3
sVOwnerUin
p582
I0
sVAlias
p583
g43
sg491
NsVSignature
p584
g43
sVContactFlag
p585
I0
sVNickName
p586
V\u4e94\u4e07\u6761\u72d7\u6495\u788e\u591c\u7a7a\u4e00\u53ea\u732b\u94bb\u8fdb\u68a6\u91cc,
p587
sVRemarkPYQuanPin
p588
g43
sVHeadImgUrl
p589
V/cgi-bin/mmwebwx-bin/webwxgetheadimg?seq=0&username=@@fa7876da1f3e660636722f1f751108abc99208aa8b9e1d4a67978301699c3076&skey=@crypt_bda10ae4_b652e7d0f30e94a581414e6eb54b728b
p590
sVUin
p591
I0
sVStarFriend
p592
I0
sVStatues
p593
I1
stp594
Rp595
I1
bag25
(g455
g30
(dp596
VUserName
p597
V@@f1ed1090899a7cb21c0d7ead9d7dbb98f6443015154111aa3fa9642112ed1264
p598
sVCity
p599
g43
sVDisplayName
p600
g43
sVUniFriend
p601
I0
sg462
g25
(g29
g30
(dp602
g32
g22
sg33
g34
sg35
g34
sg36
I0
sg37
I0
sg38
g25
(g26
g27
(lp603
tp604
Rp605
I1
bsg42
g43
sg44
g43
sg45
I3413407412
sg46
I0
sg47
I0
sg48
g34
sg49
g34
sg50
g43
sg51
g43
sg52
I0
sg53
I0
sg54
I1
sg55
g34
sg56
I0
sg57
I0
sg58
I0
sg59
I0
sg60
g34
sg61
g43
sg62
I0
sg63
g64
sg65
g43
sg66
g67
sg68
I0
sg69
I0
sg70
I0
stp606
Rp607
I1
bsVMemberList
p608
g25
(g26
g27
(lp609
tp610
Rp611
I1
bsVPYQuanPin
p612
g43
sVRemarkPYInitial
p613
g43
sVSex
p614
I0
sVAppAccountFlag
p615
I0
sVVerifyFlag
p616
I0
sVProvince
p617
g43
sVKeyWord
p618
g43
sVRemarkName
p619
g43
sVPYInitial
p620
g43
sVIsOwner
p621
I0
sVChatRoomId
p622
I0
sVHideInputBarFlag
p623
I0
sVEncryChatRoomId
p624
g43
sVAttrStatus
p625
I0
sVSnsFlag
p626
I0
sVMemberCount
p627
I10
sVOwnerUin
p628
I0
sVAlias
p629
g43
sg491
NsVSignature
p630
g43
sVContactFlag
p631
I0
sVNickName
p632
V\u5bbe\u679c\u8001\u55e8\uff0c\u5bbe\u679c\u4efd\u4f4e
p633
sVRemarkPYQuanPin
p634
g43
sVHeadImgUrl
p635
V/cgi-bin/mmwebwx-bin/webwxgetheadimg?seq=0&username=@@f1ed1090899a7cb21c0d7ead9d7dbb98f6443015154111aa3fa9642112ed1264&skey=@crypt_bda10ae4_b652e7d0f30e94a581414e6eb54b728b
p636
sVUin
p637
I0
sVStarFriend
p638
I0
sVStatues
p639
I0
stp640
Rp641
I1
bag25
(g455
g30
(dp642
VUserName
p643
V@@e98666398a7c9b3d771fa4ffc65e1f93790cb289aeee59d5dd4aca4b3a96076b
p644
sVCity
p645
g43
sVDisplayName
p646
g43
sVUniFriend
p647
I0
sg462
g25
(g29
g30
(dp648
g32
g22
sg33
g34
sg35
g34
sg36
I0
sg37
I0
sg38
g25
(g26
g27
(lp649
tp650
Rp651
I1
bsg42
g43
sg44
g43
sg45
I3413407412
sg46
I0
sg47
I0
sg48
g34
sg49
g34
sg50
g43
sg51
g43
sg52
I0
sg53
I0
sg54
I1
sg55
g34
sg56
I0
sg57
I0
sg58
I0
sg59
I0
sg60
g34
sg61
g43
sg62
I0
sg63
g64
sg65
g43
sg66
g67
sg68
I0
sg69
I0
sg70
I0
stp652
Rp653
I1
bsVMemberList
p654
g25
(g26
g27
(lp655
tp656
Rp657
I1
bsVPYQuanPin
p658
g43
sVRemarkPYInitial
p659
g43
sVSex
p660
I0
sVAppAccountFlag
p661
I0
sVVerifyFlag
p662
I0
sVProvince
p663
g43
sVKeyWord
p664
g43
sVRemarkName
p665
g43
sVPYInitial
p666
g43
sVIsOwner
p667
I0
sVChatRoomId
p668
I0
sVHideInputBarFlag
p669
I0
sVEncryChatRoomId
p670
g43
sVAttrStatus
p671
I0
sVSnsFlag
p672
I0
sVMemberCount
p673
I8
sVOwnerUin
p674
I0
sVAlias
p675
g43
sg491
NsVSignature
p676
g43
sVContactFlag
p677
I2
sVNickName
p678
Vbdp\u79fb\u52a8\u7ec4
p679
sVRemarkPYQuanPin
p680
g43
sVHeadImgUrl
p681
V/cgi-bin/mmwebwx-bin/webwxgetheadimg?seq=603850379&username=@@e98666398a7c9b3d771fa4ffc65e1f93790cb289aeee59d5dd4aca4b3a96076b&skey=@crypt_bda10ae4_b652e7d0f30e94a581414e6eb54b728b
p682
sVUin
p683
I0
sVStarFriend
p684
I0
sVStatues
p685
I1
stp686
Rp687
I1
bag25
(g455
g30
(dp688
VUserName
p689
V@@96eec8ff4f4e1eb405199fccbf2679a9beaefe4ff387e700a6e560a874ea0211
p690
sVCity
p691
g43
sVDisplayName
p692
g43
sVUniFriend
p693
I0
sg462
g25
(g29
g30
(dp694
g32
g22
sg33
g34
sg35
g34
sg36
I0
sg37
I0
sg38
g25
(g26
g27
(lp695
tp696
Rp697
I1
bsg42
g43
sg44
g43
sg45
I3413407412
sg46
I0
sg47
I0
sg48
g34
sg49
g34
sg50
g43
sg51
g43
sg52
I0
sg53
I0
sg54
I1
sg55
g34
sg56
I0
sg57
I0
sg58
I0
sg59
I0
sg60
g34
sg61
g43
sg62
I0
sg63
g64
sg65
g43
sg66
g67
sg68
I0
sg69
I0
sg70
I0
stp698
Rp699
I1
bsVMemberList
p700
g25
(g26
g27
(lp701
tp702
Rp703
I1
bsVPYQuanPin
p704
g43
sVRemarkPYInitial
p705
g43
sVSex
p706
I0
sVAppAccountFlag
p707
I0
sVVerifyFlag
p708
I0
sVProvince
p709
g43
sVKeyWord
p710
g43
sVRemarkName
p711
g43
sVPYInitial
p712
g43
sVIsOwner
p713
I0
sVChatRoomId
p714
I0
sVHideInputBarFlag
p715
I0
sVEncryChatRoomId
p716
g43
sVAttrStatus
p717
I0
sVSnsFlag
p718
I0
sVMemberCount
p719
I3
sVOwnerUin
p720
I0
sVAlias
p721
g43
sg491
NsVSignature
p722
g43
sVContactFlag
p723
I0
sVNickName
p724
VYat3s,Kerry,Aran
p725
sVRemarkPYQuanPin
p726
g43
sVHeadImgUrl
p727
V/cgi-bin/mmwebwx-bin/webwxgetheadimg?seq=0&username=@@96eec8ff4f4e1eb405199fccbf2679a9beaefe4ff387e700a6e560a874ea0211&skey=@crypt_bda10ae4_b652e7d0f30e94a581414e6eb54b728b
p728
sVUin
p729
I0
sVStarFriend
p730
I0
sVStatues
p731
I1
stp732
Rp733
I1
batp734
Rp735
I1
bsS'nickName'
p736
g64
sS'mpList'
p737
g25
(g26
g27
(lp738
g25
(cchatcore.storage.templates
MassivePlatform
p739
g30
(dp740
VUserName
p741
V@307506b3cde791afa92af3664af3a74b
p742
sVCity
p743
V\u5e7f\u5dde
p744
sVSnsFlag
p745
I0
sVDisplayName
p746
g43
sVUniFriend
p747
I0
sVMemberCount
p748
I0
sVOwnerUin
p749
I0
sVMemberList
p750
g41
sVAlias
p751
g43
sVPYQuanPin
p752
Vgongzhongpingtaianquanzhushou
p753
sVSignature
p754
V\u63d0\u4f9b\u5fae\u4fe1\u516c\u4f17\u53f7\u767b\u5f55\u548c\u7fa4\u53d1\u7b49\u5b89\u5168\u64cd\u4f5c\uff0c\u5728\u624b\u673a\u4e0a\u67e5\u6536\u6d88\u606f\u3001\u8bc4\u8bba\u3001\u8d5e\u8d4f\uff0c\u65b0\u5efa\u7fa4\u53d1\u548c\u67e5\u770b\u7fa4\u53d1\u5386\u53f2\u3002
p755
sVRemarkPYInitial
p756
g43
sVContactFlag
p757
I3
sVUin
p758
I0
sVNickName
p759
V\u516c\u4f17\u5e73\u53f0\u5b89\u5168\u52a9\u624b
p760
sVAppAccountFlag
p761
I0
sVVerifyFlag
p762
I24
sVRemarkPYQuanPin
p763
g43
sVHeadImgUrl
p764
V/cgi-bin/mmwebwx-bin/webwxgeticon?seq=600880067&username=@307506b3cde791afa92af3664af3a74b&skey=@crypt_bda10ae4_b652e7d0f30e94a581414e6eb54b728b
p765
sVKeyWord
p766
Vmph
p767
sVProvince
p768
V\u5e7f\u4e1c
p769
sVPYInitial
p770
VGZPTAQZS
p771
sVRemarkName
p772
g43
sVIsOwner
p773
I0
sVSex
p774
I0
sVStarFriend
p775
I0
sVHideInputBarFlag
p776
I0
sVChatRoomId
p777
I0
sVEncryChatRoomId
p778
g43
sVAttrStatus
p779
I98459
sVStatues
p780
I0
stp781
Rp782
I1
bag25
(g739
g30
(dp783
VUserName
p784
V@db300f528da1c4e51b976f3abe0905f9
p785
sVCity
p786
V\u897f\u57ce
p787
sVSnsFlag
p788
I0
sVDisplayName
p789
g43
sVUniFriend
p790
I0
sVMemberCount
p791
I0
sVOwnerUin
p792
I0
sVMemberList
p793
g41
sVAlias
p794
g43
sVPYQuanPin
p795
Vzhongguoliantong
p796
sVSignature
p797
V\u4e2d\u56fd\u8054\u901a\u5fae\u4fe1\u8425\u4e1a\u5385\uff0c\u4fbf\u6377\u968f\u8eab\uff0c\u67e5\u8be2\u529e\u7406\u4e00\u952e\u641e\u5b9a\uff0c\u8fd8\u6709\u5ba2\u670dMM\u8d34\u5fc3\u89e3\u5fe7\uff0c\u66f4\u591a\u8d44\u8baf\u63a8\u8350\u4e0e\u60a8\u5206\u4eab\u3002\u656c\u8bf7\u5149\u4e34\uff0c\u671f\u5f85\u60ca\u559c\uff01
p798
sVRemarkPYInitial
p799
g43
sVContactFlag
p800
I3
sVUin
p801
I0
sVNickName
p802
V\u4e2d\u56fd\u8054\u901a
p803
sVAppAccountFlag
p804
I0
sVVerifyFlag
p805
I24
sVRemarkPYQuanPin
p806
g43
sVHeadImgUrl
p807
V/cgi-bin/mmwebwx-bin/webwxgeticon?seq=603850307&username=@db300f528da1c4e51b976f3abe0905f9&skey=@crypt_bda10ae4_b652e7d0f30e94a581414e6eb54b728b
p808
sVKeyWord
p809
Vgh_
p810
sVProvince
p811
V\u5317\u4eac
p812
sVPYInitial
p813
VZGLT
p814
sVRemarkName
p815
g43
sVIsOwner
p816
I0
sVSex
p817
I0
sVStarFriend
p818
I0
sVHideInputBarFlag
p819
I0
sVChatRoomId
p820
I0
sVEncryChatRoomId
p821
g43
sVAttrStatus
p822
I0
sVStatues
p823
I0
stp824
Rp825
I1
batp826
Rp827
I1
bssS'loginInfo'
p828
(dp829
S'SyncKey'
p830
(dp831
VCount
p832
I4
sVList
p833
(lp834
(dp835
VVal
p836
I606870805
sVKey
p837
I1
sa(dp838
VVal
p839
I606870830
sVKey
p840
I2
sa(dp841
VVal
p842
I606870813
sVKey
p843
I3
sa(dp844
VVal
p845
I1493546222
sVKey
p846
I1000
sassS'syncUrl'
p847
S'https://webpush.wx2.qq.com/cgi-bin/mmwebwx-bin'
p848
sS'skey'
p849
V@crypt_bda10ae4_b652e7d0f30e94a581414e6eb54b728b
p850
sS'wxuin'
p851
V3413407412
p852
sS'synckey'
p853
S'1_606870805|2_606870830|3_606870813|1000_1493546222'
p854
sS'url'
p855
Vhttps://wx2.qq.com/cgi-bin/mmwebwx-bin
p856
sS'pass_ticket'
p857
VXdyrHXrFOGt0%2Fc%2FwQ%2BM8rhs9kiHuwL9XnZrj%2BF7Tbs40LJh5dYw031NsuQjk%2FbYB
p858
sS'wxsid'
p859
V6j1j5pHs409J8ieQ
p860
sS'InviteStartCount'
p861
I40
sS'deviceid'
p862
S'e927418424477389'
p863
sS'fileUrl'
p864
S'https://file.wx2.qq.com/cgi-bin/mmwebwx-bin'
p865
sS'BaseRequest'
p866
(dp867
g45
g852
sS'Skey'
p868
g850
sS'DeviceID'
p869
g858
sS'Sid'
p870
g860
ssS'User'
p871
g25
(g29
g30
(dp872
g32
g22
sg33
g34
sg35
g34
sg36
I0
sg38
g41
sg42
g43
sg44
g43
sg68
I0
sg46
I0
sg47
I0
sg48
g34
sg49
g34
sg50
g43
sg51
g43
sg52
I0
sg53
I0
sg54
I1
sg55
g34
sg56
I0
sg59
I0
sg57
I0
sg58
I0
sg37
I0
sg60
g34
sg61
g43
sg62
I0
sg63
g64
sg65
g43
sg66
g67
sg45
I3413407412
sg69
I0
sg70
I0
stp873
Rp874
I1
bss.