(dp0
S'cookies'
p1
(dp2
S'wxloadtime'
p3
S'1493351032'
p4
sS'webwx_data_ticket'
p5
S'gSdX1QT94EJh9GKitPfPDptJ'
p6
sS'wxuin'
p7
S'3413407412'
p8
sS'login_frequency'
p9
S'2'
p10
sS'MM_WX_NOTIFY_STATE'
p11
S'1'
p12
sS'MM_WX_SOUND_STATE'
p13
g12
sS'webwx_auth_ticket'
p14
S'CIsBENXl2tEOGoABUKxYEKR5FY51M6okdznlNOBFmEPmcFYkh6UNfVEmRNmFOb3logmcgrIDBqK+TxThDpb7/IgPm3o2b6FBHswdgc/ivWsrabBfV68kB0fCk67NA6Zc30t/ts5Gj57SJePmAQga1OlVJ3f5q58df6W37xFN85k+IB4fikaBbsCEJ/E='
p15
sS'last_wxuin'
p16
S'3413407412'
p17
sS'webwxuvid'
p18
S'0ad038a387f4269064e4a4417f4f53ec4ba09bc37f4701209a4da3a50b6aec896a69993b6d7c2be70829c938fc402626'
p19
sS'wxpluginkey'
p20
S'1493282290'
p21
sS'wxsid'
p22
S'sCaQbzMR04glJ+qG'
p23
sS'mm_lang'
p24
S'zh_CN'
p25
ssS'version'
p26
S'1.3.5'
p27
sS'storage'
p28
(dp29
S'userName'
p30
V@7b633a361c86ea5bf2aa9641b912ffd2db2bf0caeae9a83e5cd276e62b9ba3df
p31
sS'lastInputUserName'
p32
NsS'memberList'
p33
ccopy_reg
_reconstructor
p34
(cchatcore.storage.templates
ContactList
p35
c__builtin__
list
p36
(lp37
g34
(cchatcore.storage.templates
User
p38
c__builtin__
dict
p39
(dp40
S'UserName'
p41
g31
sS'City'
p42
S''
p43
sS'DisplayName'
p44
g43
sS'UniFriend'
p45
I0
sS'OwnerUin'
p46
I0
sS'MemberList'
p47
g34
(g35
g36
(lp48
tp49
Rp50
I1
bsS'PYQuanPin'
p51
V
p52
sS'RemarkPYInitial'
p53
g52
sS'Uin'
p54
I3413407412
sS'AppAccountFlag'
p55
I0
sS'VerifyFlag'
p56
I0
sS'Province'
p57
g43
sS'KeyWord'
p58
g43
sS'RemarkName'
p59
g52
sS'PYInitial'
p60
g52
sS'ChatRoomId'
p61
I0
sS'HideInputBarFlag'
p62
I0
sVHeadImgFlag
p63
I1
sS'EncryChatRoomId'
p64
g43
sS'AttrStatus'
p65
I0
sS'SnsFlag'
p66
I0
sS'MemberCount'
p67
I0
sVWebWxPluginSwitch
p68
I0
sS'Alias'
p69
g43
sS'Signature'
p70
g52
sS'ContactFlag'
p71
I0
sS'NickName'
p72
VAran
p73
sS'RemarkPYQuanPin'
p74
g52
sS'HeadImgUrl'
p75
V/cgi-bin/mmwebwx-bin/webwxgeticon?seq=1489670105&username=@7b633a361c86ea5bf2aa9641b912ffd2db2bf0caeae9a83e5cd276e62b9ba3df&skey=@crypt_bda10ae4_5c4d1a5c39dab2456ab9b412911be664
p76
sS'Sex'
p77
I0
sS'StarFriend'
p78
I0
sS'Statues'
p79
I0
stp80
Rp81
I1
bag34
(g38
g39
(dp82
VUserName
p83
V@cde1ab994d078761bd87cafdc37ec9efa20ce101ad46cdcd806ca14761d95479
p84
sVCity
p85
V\u4e1c\u57ce
p86
sVSnsFlag
p87
I49
sVDisplayName
p88
g52
sVUniFriend
p89
I0
sVMemberCount
p90
I0
sVOwnerUin
p91
I0
sVMemberList
p92
g50
sVAlias
p93
VYe-zone
p94
sVPYQuanPin
p95
VYat3s
p96
sVSignature
p97
V\u4e00\u53ea\u7231\u73a9\u7684\u7a0b\u5e8f\u6c6a<span class="emoji emoji1f436"></span>
p98
sVRemarkPYInitial
p99
g52
sVContactFlag
p100
I3
sVUin
p101
I0
sVNickName
p102
VYat3s
p103
sVAppAccountFlag
p104
I0
sVVerifyFlag
p105
I0
sVRemarkPYQuanPin
p106
g52
sVHeadImgUrl
p107
V/cgi-bin/mmwebwx-bin/webwxgeticon?seq=603850332&username=@cde1ab994d078761bd87cafdc37ec9efa20ce101ad46cdcd806ca14761d95479&skey=@crypt_bda10ae4_5c4d1a5c39dab2456ab9b412911be664
p108
sVKeyWord
p109
g52
sVProvince
p110
V\u5317\u4eac
p111
sVPYInitial
p112
VYAT3S
p113
sVRemarkName
p114
g52
sVIsOwner
p115
I0
sVSex
p116
I1
sVStarFriend
p117
I0
sVHideInputBarFlag
p118
I0
sVChatRoomId
p119
I0
sVEncryChatRoomId
p120
g52
sVAttrStatus
p121
I37851239
sVStatues
p122
I0
stp123
Rp124
I1
bag34
(g38
g39
(dp125
VUserName
p126
V@445abb96dd41c48ba3221d0576a37e663e2b60f157de477ad60737478add54f3
p127
sVCity
p128
V\u671d\u9633
p129
sVSnsFlag
p130
I17
sVDisplayName
p131
g52
sVUniFriend
p132
I0
sVMemberCount
p133
I0
sVOwnerUin
p134
I0
sVMemberList
p135
g50
sVAlias
p136
Vmy_cheese92
p137
sVPYQuanPin
p138
VKerry
p139
sVSignature
p140
V\u4ee5\u68a6\u4e3a\u9a6c\uff0c\u4e0d\u8d1f\u97f6\u534e
p141
sVRemarkPYInitial
p142
g52
sVContactFlag
p143
I3
sVUin
p144
I0
sVNickName
p145
VKerry
p146
sVAppAccountFlag
p147
I0
sVVerifyFlag
p148
I0
sVRemarkPYQuanPin
p149
g52
sVHeadImgUrl
p150
V/cgi-bin/mmwebwx-bin/webwxgeticon?seq=603850763&username=@445abb96dd41c48ba3221d0576a37e663e2b60f157de477ad60737478add54f3&skey=@crypt_bda10ae4_5c4d1a5c39dab2456ab9b412911be664
p151
sVKeyWord
p152
g52
sVProvince
p153
V\u5317\u4eac
p154
sVPYInitial
p155
VKERRY
p156
sVRemarkName
p157
g52
sVIsOwner
p158
I0
sVSex
p159
I2
sVStarFriend
p160
I0
sVHideInputBarFlag
p161
I0
sVChatRoomId
p162
I0
sVEncryChatRoomId
p163
g52
sVAttrStatus
p164
I33674359
sVStatues
p165
I0
stp166
Rp167
I1
bag34
(g38
g39
(dp168
VUserName
p169
V@9d32000a0db5f989c54126a97996bdbfd129872968b71767f10c7cb25ba5201d
p170
sVCity
p171
g52
sVSnsFlag
p172
I17
sVDisplayName
p173
g52
sVUniFriend
p174
I0
sVMemberCount
p175
I0
sVOwnerUin
p176
I0
sVMemberList
p177
g50
sVAlias
p178
VTLTL92
p179
sVPYQuanPin
p180
Vmeiguishilichunfeng
p181
sVSignature
p182
V\u800c\u4eca\u6811\u58ee\u5fd7        \u4ee5\u5f85\u626c\u56fd\u5a01
p183
sVRemarkPYInitial
p184
g52
sVContactFlag
p185
I3
sVUin
p186
I0
sVNickName
p187
V[\u73ab\u7470]\u5341\u91cc\u6625\u98ce
p188
sVAppAccountFlag
p189
I0
sVVerifyFlag
p190
I0
sVRemarkPYQuanPin
p191
g52
sVHeadImgUrl
p192
V/cgi-bin/mmwebwx-bin/webwxgeticon?seq=603852839&username=@9d32000a0db5f989c54126a97996bdbfd129872968b71767f10c7cb25ba5201d&skey=@crypt_bda10ae4_5c4d1a5c39dab2456ab9b412911be664
p193
sVKeyWord
p194
g52
sVProvince
p195
VParis
p196
sVPYInitial
p197
VMGSLCF
p198
sVRemarkName
p199
g52
sVIsOwner
p200
I0
sVSex
p201
I1
sVStarFriend
p202
I0
sVHideInputBarFlag
p203
I0
sVChatRoomId
p204
I0
sVEncryChatRoomId
p205
g52
sVAttrStatus
p206
I102439
sVStatues
p207
I0
stp208
Rp209
I1
bag34
(g38
g39
(dp210
VUserName
p211
V@adbecd4c60ab733405605b55b662b05e
p212
sVCity
p213
V\u671d\u9633
p214
sVSnsFlag
p215
I49
sVDisplayName
p216
g52
sVUniFriend
p217
I0
sVMemberCount
p218
I0
sVOwnerUin
p219
I0
sVMemberList
p220
g50
sVAlias
p221
g52
sVPYQuanPin
p222
Vspanclassemojiemoji1f343span
p223
sVSignature
p224
V<span class="emoji emoji2708"></span>\ufe0f
p225
sVRemarkPYInitial
p226
g52
sVContactFlag
p227
I3
sVUin
p228
I0
sVNickName
p229
V\U0001f343
p230
sVAppAccountFlag
p231
I0
sVVerifyFlag
p232
I0
sVRemarkPYQuanPin
p233
g52
sVHeadImgUrl
p234
V/cgi-bin/mmwebwx-bin/webwxgeticon?seq=606870188&username=@adbecd4c60ab733405605b55b662b05e&skey=@crypt_bda10ae4_5c4d1a5c39dab2456ab9b412911be664
p235
sVKeyWord
p236
VYE1
p237
sVProvince
p238
V\u5317\u4eac
p239
sVPYInitial
p240
VSPANCLASSEMOJIEMOJI1F343SPAN
p241
sVRemarkName
p242
g52
sVIsOwner
p243
I0
sVSex
p244
I2
sVStarFriend
p245
I0
sVHideInputBarFlag
p246
I0
sVChatRoomId
p247
I0
sVEncryChatRoomId
p248
g52
sVAttrStatus
p249
I229863
sVStatues
p250
I0
stp251
Rp252
I1
bag34
(g38
g39
(dp253
VUserName
p254
V@81275af6c12cb5f314d647e13aab24efa852b4603514a70e49630837fa1b3630
p255
sVCity
p256
V\u8d63\u5dde
p257
sVSnsFlag
p258
I49
sVDisplayName
p259
g52
sVUniFriend
p260
I0
sVMemberCount
p261
I0
sVOwnerUin
p262
I0
sVMemberList
p263
g50
sVAlias
p264
VElain1025
p265
sVPYQuanPin
p266
Vxiaoliao15807504515
p267
sVSignature
p268
V\u4e0b\u8f88\u5b50\u6295\u80ce\u505a\u4e2a\u7537\u4eba\uff0c\u5a36\u4e2a\u50cf\u6211\u8fd9\u6837\u7684\u5973\u4eba\U0001f64815807504515
p269
sVRemarkPYInitial
p270
VELAINE
p271
sVContactFlag
p272
I3
sVUin
p273
I0
sVNickName
p274
V\u5c0f\u5ed6 15807504515
p275
sVAppAccountFlag
p276
I0
sVVerifyFlag
p277
I0
sVRemarkPYQuanPin
p278
VElaine
p279
sVHeadImgUrl
p280
V/cgi-bin/mmwebwx-bin/webwxgeticon?seq=603850127&username=@81275af6c12cb5f314d647e13aab24efa852b4603514a70e49630837fa1b3630&skey=@crypt_bda10ae4_5c4d1a5c39dab2456ab9b412911be664
p281
sVKeyWord
p282
g52
sVProvince
p283
V\u6c5f\u897f
p284
sVPYInitial
p285
VXL15807504515
p286
sVRemarkName
p287
VElaine
p288
sVIsOwner
p289
I0
sVSex
p290
I2
sVStarFriend
p291
I0
sVHideInputBarFlag
p292
I0
sVChatRoomId
p293
I0
sVEncryChatRoomId
p294
g52
sVAttrStatus
p295
I69669
sVStatues
p296
I0
stp297
Rp298
I1
bag34
(g38
g39
(dp299
VUserName
p300
V@1f5525a15f04df5a3b8c0f28eaea2086fcdc43f87423618e891ff88d063a13ae
p301
sVCity
p302
g52
sVSnsFlag
p303
I17
sVDisplayName
p304
g52
sVUniFriend
p305
I0
sVMemberCount
p306
I0
sVOwnerUin
p307
I0
sVMemberList
p308
g50
sVAlias
p309
VYihoney_
p310
sVPYQuanPin
p311
Vspanclassemojiemoji1f33espancaoyispanclassemojiemoji1f33espan
p312
sVSignature
p313
V\u6709\u82b1\u6709\u6708\u6709\u697c\u53f0 \u4e0d\u98ce\u6d41\u5904\u4e5f\u98ce\u6d41
p314
sVRemarkPYInitial
p315
g52
sVContactFlag
p316
I3
sVUin
p317
I0
sVNickName
p318
V\U0001f33e\u8349\u4e59\U0001f33e
p319
sVAppAccountFlag
p320
I0
sVVerifyFlag
p321
I0
sVRemarkPYQuanPin
p322
g52
sVHeadImgUrl
p323
V/cgi-bin/mmwebwx-bin/webwxgeticon?seq=603850966&username=@1f5525a15f04df5a3b8c0f28eaea2086fcdc43f87423618e891ff88d063a13ae&skey=@crypt_bda10ae4_5c4d1a5c39dab2456ab9b412911be664
p324
sVKeyWord
p325
g52
sVProvince
p326
g52
sVPYInitial
p327
VSPANCLASSEMOJIEMOJI1F33ESPANCYSPANCLASSEMOJIEMOJI1F33ESPAN
p328
sVRemarkName
p329
g52
sVIsOwner
p330
I0
sVSex
p331
I2
sVStarFriend
p332
I0
sVHideInputBarFlag
p333
I0
sVChatRoomId
p334
I0
sVEncryChatRoomId
p335
g52
sVAttrStatus
p336
I33785893
sVStatues
p337
I0
stp338
Rp339
I1
bag34
(g38
g39
(dp340
VUserName
p341
V@58abe8628777e957c97d6068c2902b4f
p342
sVCity
p343
V\u8475\u9752\u533a
p344
sVSnsFlag
p345
I49
sVDisplayName
p346
g52
sVUniFriend
p347
I0
sVMemberCount
p348
I0
sVOwnerUin
p349
I0
sVMemberList
p350
g50
sVAlias
p351
g52
sVPYQuanPin
p352
Vspanclassemojiemoji1f335spanyezhier
p353
sVSignature
p354
V\u65f6\u5149\u6f2b\u957f\uff0c\u6709\u6211\u522b\u614c\u3002<span class="emoji emoji1f618"></span>
p355
sVRemarkPYInitial
p356
g52
sVContactFlag
p357
I3
sVUin
p358
I0
sVNickName
p359
V\U0001f335\u6930\u6c41\u513f
p360
sVAppAccountFlag
p361
I0
sVVerifyFlag
p362
I0
sVRemarkPYQuanPin
p363
g52
sVHeadImgUrl
p364
V/cgi-bin/mmwebwx-bin/webwxgeticon?seq=603850968&username=@58abe8628777e957c97d6068c2902b4f&skey=@crypt_bda10ae4_5c4d1a5c39dab2456ab9b412911be664
p365
sVKeyWord
p366
Vyev
p367
sVProvince
p368
V\u9999\u6e2f
p369
sVPYInitial
p370
VSPANCLASSEMOJIEMOJI1F335SPANYZE
p371
sVRemarkName
p372
g52
sVIsOwner
p373
I0
sVSex
p374
I2
sVStarFriend
p375
I0
sVHideInputBarFlag
p376
I0
sVChatRoomId
p377
I0
sVEncryChatRoomId
p378
g52
sVAttrStatus
p379
I67623
sVStatues
p380
I0
stp381
Rp382
I1
bag34
(g38
g39
(dp383
VUserName
p384
V@95f049febb28b3c23db57ea892ec7d8211d72c8eb601adb645cb2e884d5b8c05
p385
sVCity
p386
g52
sVSnsFlag
p387
I17
sVDisplayName
p388
g52
sVUniFriend
p389
I0
sVMemberCount
p390
I0
sVOwnerUin
p391
I0
sVMemberList
p392
g50
sVAlias
p393
VJava2048
p394
sVPYQuanPin
p395
Vxiaodeqiu
p396
sVSignature
p397
V\u5b66\u800c\u4e0d\u601d\u5219\u7f54\uff0c\u54c8\u54c8
p398
sVRemarkPYInitial
p399
g52
sVContactFlag
p400
I3
sVUin
p401
I0
sVNickName
p402
V\u5c0f\u5730\u7403
p403
sVAppAccountFlag
p404
I0
sVVerifyFlag
p405
I0
sVRemarkPYQuanPin
p406
g52
sVHeadImgUrl
p407
V/cgi-bin/mmwebwx-bin/webwxgeticon?seq=603851078&username=@95f049febb28b3c23db57ea892ec7d8211d72c8eb601adb645cb2e884d5b8c05&skey=@crypt_bda10ae4_5c4d1a5c39dab2456ab9b412911be664
p408
sVKeyWord
p409
g52
sVProvince
p410
VFrankfurt
p411
sVPYInitial
p412
VXDQ
p413
sVRemarkName
p414
g52
sVIsOwner
p415
I0
sVSex
p416
I1
sVStarFriend
p417
I0
sVHideInputBarFlag
p418
I0
sVChatRoomId
p419
I0
sVEncryChatRoomId
p420
g52
sVAttrStatus
p421
I33789989
sVStatues
p422
I0
stp423
Rp424
I1
bag34
(g38
g39
(dp425
VUserName
p426
V@7a4681736563f4e4a207be39d487b46faf28e72d7b2eb4ed4f90eab85c028aa1
p427
sVCity
p428
g52
sVSnsFlag
p429
I49
sVDisplayName
p430
g52
sVUniFriend
p431
I0
sVMemberCount
p432
I0
sVOwnerUin
p433
I0
sVMemberList
p434
g50
sVAlias
p435
Vecholee1991
p436
sVPYQuanPin
p437
Vechoxiaomeng
p438
sVSignature
p439
V\u65e2\u7136\u7434\u745f\u8d77
p440
sVRemarkPYInitial
p441
g52
sVContactFlag
p442
I3
sVUin
p443
I0
sVNickName
p444
Vecho\u5c0f\u840c
p445
sVAppAccountFlag
p446
I0
sVVerifyFlag
p447
I0
sVRemarkPYQuanPin
p448
g52
sVHeadImgUrl
p449
V/cgi-bin/mmwebwx-bin/webwxgeticon?seq=603851910&username=@7a4681736563f4e4a207be39d487b46faf28e72d7b2eb4ed4f90eab85c028aa1&skey=@crypt_bda10ae4_5c4d1a5c39dab2456ab9b412911be664
p450
sVKeyWord
p451
g52
sVProvince
p452
V\u5317\u4eac
p453
sVPYInitial
p454
VECHOXM
p455
sVRemarkName
p456
g52
sVIsOwner
p457
I0
sVSex
p458
I2
sVStarFriend
p459
I0
sVHideInputBarFlag
p460
I0
sVChatRoomId
p461
I0
sVEncryChatRoomId
p462
g52
sVAttrStatus
p463
I67224677
sVStatues
p464
I0
stp465
Rp466
I1
batp467
Rp468
I1
bsS'chatroomList'
p469
g34
(g35
g36
(lp470
g34
(cchatcore.storage.templates
Chatroom
p471
g39
(dp472
VUserName
p473
V@@bb79b857b38d68362dd26ceab50d987f98bfd61d3e8662d1c508b7b6c03d2b04
p474
sVCity
p475
g52
sVDisplayName
p476
g52
sVUniFriend
p477
I0
sS'Self'
p478
g34
(g38
g39
(dp479
g41
g31
sg42
g43
sg44
g43
sg45
I0
sg46
I0
sg47
g34
(g35
g36
(lp480
tp481
Rp482
I1
bsg51
g52
sg53
g52
sg54
I3413407412
sg55
I0
sg56
I0
sg57
g43
sg58
g43
sg59
g52
sg60
g52
sg61
I0
sg62
I0
sg63
I1
sg64
g43
sg65
I0
sg66
I0
sg67
I0
sg68
I0
sg69
g43
sg70
g52
sg71
I0
sg72
g73
sg74
g52
sg75
g76
sg77
I0
sg78
I0
sg79
I0
stp483
Rp484
I1
bsVMemberList
p485
g34
(g35
g36
(lp486
tp487
Rp488
I1
bsVPYQuanPin
p489
g52
sVRemarkPYInitial
p490
g52
sVSex
p491
I0
sVAppAccountFlag
p492
I0
sVVerifyFlag
p493
I0
sVProvince
p494
g52
sVKeyWord
p495
g52
sVRemarkName
p496
g52
sVPYInitial
p497
g52
sVIsOwner
p498
I0
sVChatRoomId
p499
I0
sVHideInputBarFlag
p500
I0
sVEncryChatRoomId
p501
g52
sVAttrStatus
p502
I0
sVSnsFlag
p503
I0
sVMemberCount
p504
I3
sVOwnerUin
p505
I0
sVAlias
p506
g52
sS'IsAdmin'
p507
NsVSignature
p508
g52
sVContactFlag
p509
I0
sVNickName
p510
VYat3s,Kerry,Aran
p511
sVRemarkPYQuanPin
p512
g52
sVHeadImgUrl
p513
V/cgi-bin/mmwebwx-bin/webwxgetheadimg?seq=0&username=@@bb79b857b38d68362dd26ceab50d987f98bfd61d3e8662d1c508b7b6c03d2b04&skey=@crypt_bda10ae4_5c4d1a5c39dab2456ab9b412911be664
p514
sVUin
p515
I0
sVStarFriend
p516
I0
sVStatues
p517
I1
stp518
Rp519
I1
bag34
(g471
g39
(dp520
VUserName
p521
V@@e615399060ba7e7436a759c6ad94e1bda7c03183554b21f7ec7e0a24d3a20343
p522
sVCity
p523
g52
sVDisplayName
p524
g52
sVUniFriend
p525
I0
sg478
g34
(g38
g39
(dp526
g41
g31
sg42
g43
sg44
g43
sg45
I0
sg46
I0
sg47
g34
(g35
g36
(lp527
tp528
Rp529
I1
bsg51
g52
sg53
g52
sg54
I3413407412
sg55
I0
sg56
I0
sg57
g43
sg58
g43
sg59
g52
sg60
g52
sg61
I0
sg62
I0
sg63
I1
sg64
g43
sg65
I0
sg66
I0
sg67
I0
sg68
I0
sg69
g43
sg70
g52
sg71
I0
sg72
g73
sg74
g52
sg75
g76
sg77
I0
sg78
I0
sg79
I0
stp530
Rp531
I1
bsVMemberList
p532
g34
(g35
g36
(lp533
tp534
Rp535
I1
bsVPYQuanPin
p536
g52
sVRemarkPYInitial
p537
g52
sVSex
p538
I0
sVAppAccountFlag
p539
I0
sVVerifyFlag
p540
I0
sVProvince
p541
g52
sVKeyWord
p542
g52
sVRemarkName
p543
g52
sVPYInitial
p544
g52
sVIsOwner
p545
I0
sVChatRoomId
p546
I0
sVHideInputBarFlag
p547
I0
sVEncryChatRoomId
p548
g52
sVAttrStatus
p549
I0
sVSnsFlag
p550
I0
sVMemberCount
p551
I8
sVOwnerUin
p552
I0
sVAlias
p553
g52
sg507
NsVSignature
p554
g52
sVContactFlag
p555
I2
sVNickName
p556
Vbdp\u79fb\u52a8\u7ec4
p557
sVRemarkPYQuanPin
p558
g52
sVHeadImgUrl
p559
V/cgi-bin/mmwebwx-bin/webwxgetheadimg?seq=603850379&username=@@e615399060ba7e7436a759c6ad94e1bda7c03183554b21f7ec7e0a24d3a20343&skey=@crypt_bda10ae4_5c4d1a5c39dab2456ab9b412911be664
p560
sVUin
p561
I0
sVStarFriend
p562
I0
sVStatues
p563
I1
stp564
Rp565
I1
bag34
(g471
g39
(dp566
VUserName
p567
V@@2bf196a4ac86f0feb8d29ac6da8448fa011414aca3cd4b86f999079efc6c4a65
p568
sVCity
p569
g52
sVDisplayName
p570
g52
sVUniFriend
p571
I0
sg478
g34
(g38
g39
(dp572
g41
g31
sg42
g43
sg44
g43
sg45
I0
sg46
I0
sg47
g34
(g35
g36
(lp573
tp574
Rp575
I1
bsg51
g52
sg53
g52
sg54
I3413407412
sg55
I0
sg56
I0
sg57
g43
sg58
g43
sg59
g52
sg60
g52
sg61
I0
sg62
I0
sg63
I1
sg64
g43
sg65
I0
sg66
I0
sg67
I0
sg68
I0
sg69
g43
sg70
g52
sg71
I0
sg72
g73
sg74
g52
sg75
g76
sg77
I0
sg78
I0
sg79
I0
stp576
Rp577
I1
bsVMemberList
p578
g34
(g35
g36
(lp579
tp580
Rp581
I1
bsVPYQuanPin
p582
g52
sVRemarkPYInitial
p583
g52
sVSex
p584
I0
sVAppAccountFlag
p585
I0
sVVerifyFlag
p586
I0
sVProvince
p587
g52
sVKeyWord
p588
g52
sVRemarkName
p589
g52
sVPYInitial
p590
g52
sVIsOwner
p591
I0
sVChatRoomId
p592
I0
sVHideInputBarFlag
p593
I0
sVEncryChatRoomId
p594
g52
sVAttrStatus
p595
I0
sVSnsFlag
p596
I0
sVMemberCount
p597
I3
sVOwnerUin
p598
I0
sVAlias
p599
g52
sg507
NsVSignature
p600
g52
sVContactFlag
p601
I0
sVNickName
p602
VYat3s,echo\u5c0f\u840c,Aran
p603
sVRemarkPYQuanPin
p604
g52
sVHeadImgUrl
p605
V/cgi-bin/mmwebwx-bin/webwxgetheadimg?seq=0&username=@@2bf196a4ac86f0feb8d29ac6da8448fa011414aca3cd4b86f999079efc6c4a65&skey=@crypt_bda10ae4_5c4d1a5c39dab2456ab9b412911be664
p606
sVUin
p607
I0
sVStarFriend
p608
I0
sVStatues
p609
I1
stp610
Rp611
I1
bag34
(g471
g39
(dp612
VUserName
p613
V@@d0a75f7b6ae98de2dba22f9a8b4f9a3f2703d662362f21e6c97e7991375890ec
p614
sVCity
p615
g52
sVDisplayName
p616
g52
sVUniFriend
p617
I0
sg478
g34
(g38
g39
(dp618
g41
g31
sg42
g43
sg44
g43
sg45
I0
sg46
I0
sg47
g34
(g35
g36
(lp619
tp620
Rp621
I1
bsg51
g52
sg53
g52
sg54
I3413407412
sg55
I0
sg56
I0
sg57
g43
sg58
g43
sg59
g52
sg60
g52
sg61
I0
sg62
I0
sg63
I1
sg64
g43
sg65
I0
sg66
I0
sg67
I0
sg68
I0
sg69
g43
sg70
g52
sg71
I0
sg72
g73
sg74
g52
sg75
g76
sg77
I0
sg78
I0
sg79
I0
stp622
Rp623
I1
bsVMemberList
p624
g34
(g35
g36
(lp625
tp626
Rp627
I1
bsVPYQuanPin
p628
g52
sVRemarkPYInitial
p629
g52
sVSex
p630
I0
sVAppAccountFlag
p631
I0
sVVerifyFlag
p632
I0
sVProvince
p633
g52
sVKeyWord
p634
g52
sVRemarkName
p635
g52
sVPYInitial
p636
g52
sVIsOwner
p637
I0
sVChatRoomId
p638
I0
sVHideInputBarFlag
p639
I0
sVEncryChatRoomId
p640
g52
sVAttrStatus
p641
I0
sVSnsFlag
p642
I0
sVMemberCount
p643
I8
sVOwnerUin
p644
I0
sVAlias
p645
g52
sg507
NsVSignature
p646
g52
sVContactFlag
p647
I2
sVNickName
p648
V\u7ea2\u5305\u96e8
p649
sVRemarkPYQuanPin
p650
g52
sVHeadImgUrl
p651
V/cgi-bin/mmwebwx-bin/webwxgetheadimg?seq=603850892&username=@@d0a75f7b6ae98de2dba22f9a8b4f9a3f2703d662362f21e6c97e7991375890ec&skey=@crypt_bda10ae4_5c4d1a5c39dab2456ab9b412911be664
p652
sVUin
p653
I0
sVStarFriend
p654
I0
sVStatues
p655
I1
stp656
Rp657
I1
bag34
(g471
g39
(dp658
VUserName
p659
V@@fd85737717f338c02fc20d76fa61c72be2d97d038103d99d632ff792b0ffdc95
p660
sVCity
p661
g52
sVDisplayName
p662
g52
sVUniFriend
p663
I0
sg478
g34
(g38
g39
(dp664
g41
g31
sg42
g43
sg44
g43
sg45
I0
sg46
I0
sg47
g34
(g35
g36
(lp665
tp666
Rp667
I1
bsg51
g52
sg53
g52
sg54
I3413407412
sg55
I0
sg56
I0
sg57
g43
sg58
g43
sg59
g52
sg60
g52
sg61
I0
sg62
I0
sg63
I1
sg64
g43
sg65
I0
sg66
I0
sg67
I0
sg68
I0
sg69
g43
sg70
g52
sg71
I0
sg72
g73
sg74
g52
sg75
g76
sg77
I0
sg78
I0
sg79
I0
stp668
Rp669
I1
bsVMemberList
p670
g34
(g35
g36
(lp671
tp672
Rp673
I1
bsVPYQuanPin
p674
g52
sVRemarkPYInitial
p675
g52
sVSex
p676
I0
sVAppAccountFlag
p677
I0
sVVerifyFlag
p678
I0
sVProvince
p679
g52
sVKeyWord
p680
g52
sVRemarkName
p681
g52
sVPYInitial
p682
g52
sVIsOwner
p683
I0
sVChatRoomId
p684
I0
sVHideInputBarFlag
p685
I0
sVEncryChatRoomId
p686
g52
sVAttrStatus
p687
I0
sVSnsFlag
p688
I0
sVMemberCount
p689
I10
sVOwnerUin
p690
I0
sVAlias
p691
g52
sg507
NsVSignature
p692
g52
sVContactFlag
p693
I0
sVNickName
p694
V\u5bbe\u679c\u8001\u55e8\uff0c\u5bbe\u679c\u4efd\u4f4e
p695
sVRemarkPYQuanPin
p696
g52
sVHeadImgUrl
p697
V/cgi-bin/mmwebwx-bin/webwxgetheadimg?seq=0&username=@@fd85737717f338c02fc20d76fa61c72be2d97d038103d99d632ff792b0ffdc95&skey=@crypt_bda10ae4_5c4d1a5c39dab2456ab9b412911be664
p698
sVUin
p699
I0
sVStarFriend
p700
I0
sVStatues
p701
I1
stp702
Rp703
I1
batp704
Rp705
I1
bsS'nickName'
p706
g73
sS'mpList'
p707
g34
(g35
g36
(lp708
g34
(cchatcore.storage.templates
MassivePlatform
p709
g39
(dp710
VUserName
p711
V@ce693538a0f5d31cbf045adf6a78695b
p712
sVCity
p713
V\u5e7f\u5dde
p714
sVSnsFlag
p715
I0
sVDisplayName
p716
g52
sVUniFriend
p717
I0
sVMemberCount
p718
I0
sVOwnerUin
p719
I0
sVMemberList
p720
g50
sVAlias
p721
g52
sVPYQuanPin
p722
Vgongzhongpingtaianquanzhushou
p723
sVSignature
p724
V\u63d0\u4f9b\u5fae\u4fe1\u516c\u4f17\u53f7\u767b\u5f55\u548c\u7fa4\u53d1\u7b49\u5b89\u5168\u64cd\u4f5c\uff0c\u5728\u624b\u673a\u4e0a\u67e5\u6536\u6d88\u606f\u3001\u8bc4\u8bba\u3001\u8d5e\u8d4f\uff0c\u65b0\u5efa\u7fa4\u53d1\u548c\u67e5\u770b\u7fa4\u53d1\u5386\u53f2\u3002
p725
sVRemarkPYInitial
p726
g52
sVContactFlag
p727
I3
sVUin
p728
I0
sVNickName
p729
V\u516c\u4f17\u5e73\u53f0\u5b89\u5168\u52a9\u624b
p730
sVAppAccountFlag
p731
I0
sVVerifyFlag
p732
I24
sVRemarkPYQuanPin
p733
g52
sVHeadImgUrl
p734
V/cgi-bin/mmwebwx-bin/webwxgeticon?seq=600880067&username=@ce693538a0f5d31cbf045adf6a78695b&skey=@crypt_bda10ae4_5c4d1a5c39dab2456ab9b412911be664
p735
sVKeyWord
p736
Vmph
p737
sVProvince
p738
V\u5e7f\u4e1c
p739
sVPYInitial
p740
VGZPTAQZS
p741
sVRemarkName
p742
g52
sVIsOwner
p743
I0
sVSex
p744
I0
sVStarFriend
p745
I0
sVHideInputBarFlag
p746
I0
sVChatRoomId
p747
I0
sVEncryChatRoomId
p748
g52
sVAttrStatus
p749
I98459
sVStatues
p750
I0
stp751
Rp752
I1
bag34
(g709
g39
(dp753
VUserName
p754
V@9c7897d6fca54b5875177b8ad144717f
p755
sVCity
p756
V\u897f\u57ce
p757
sVSnsFlag
p758
I0
sVDisplayName
p759
g52
sVUniFriend
p760
I0
sVMemberCount
p761
I0
sVOwnerUin
p762
I0
sVMemberList
p763
g50
sVAlias
p764
VChinaUnicom800010010
p765
sVPYQuanPin
p766
Vzhongguoliantong
p767
sVSignature
p768
V\u4e2d\u56fd\u8054\u901a\u5fae\u4fe1\u8425\u4e1a\u5385\uff0c\u4fbf\u6377\u968f\u8eab\uff0c\u67e5\u8be2\u529e\u7406\u4e00\u952e\u641e\u5b9a\uff0c\u8fd8\u6709\u5ba2\u670dMM\u8d34\u5fc3\u89e3\u5fe7\uff0c\u66f4\u591a\u8d44\u8baf\u63a8\u8350\u4e0e\u60a8\u5206\u4eab\u3002\u656c\u8bf7\u5149\u4e34\uff0c\u671f\u5f85\u60ca\u559c\uff01
p769
sVRemarkPYInitial
p770
g52
sVContactFlag
p771
I3
sVUin
p772
I0
sVNickName
p773
V\u4e2d\u56fd\u8054\u901a
p774
sVAppAccountFlag
p775
I0
sVVerifyFlag
p776
I24
sVRemarkPYQuanPin
p777
g52
sVHeadImgUrl
p778
V/cgi-bin/mmwebwx-bin/webwxgeticon?seq=603850307&username=@9c7897d6fca54b5875177b8ad144717f&skey=@crypt_bda10ae4_5c4d1a5c39dab2456ab9b412911be664
p779
sVKeyWord
p780
Vgh_
p781
sVProvince
p782
V\u5317\u4eac
p783
sVPYInitial
p784
VZGLT
p785
sVRemarkName
p786
g52
sVIsOwner
p787
I0
sVSex
p788
I0
sVStarFriend
p789
I0
sVHideInputBarFlag
p790
I0
sVChatRoomId
p791
I0
sVEncryChatRoomId
p792
g52
sVAttrStatus
p793
I0
sVStatues
p794
I0
stp795
Rp796
I1
batp797
Rp798
I1
bssS'loginInfo'
p799
(dp800
S'SyncKey'
p801
(dp802
VCount
p803
I4
sVList
p804
(lp805
(dp806
VVal
p807
I606870001
sVKey
p808
I1
sa(dp809
VVal
p810
I606870245
sVKey
p811
I2
sa(dp812
VVal
p813
I606870188
sVKey
p814
I3
sa(dp815
VVal
p816
I1493339222
sVKey
p817
I1000
sassS'syncUrl'
p818
S'https://webpush.wx2.qq.com/cgi-bin/mmwebwx-bin'
p819
sS'skey'
p820
V@crypt_bda10ae4_5c4d1a5c39dab2456ab9b412911be664
p821
sS'wxuin'
p822
V3413407412
p823
sS'synckey'
p824
S'1_606870001|2_606870245|3_606870188|1000_1493339222'
p825
sS'url'
p826
Vhttps://wx2.qq.com/cgi-bin/mmwebwx-bin
p827
sS'pass_ticket'
p828
VtLUFv6TZiDM32Ua8L4O9GcbKKT7SebVK8s8MIuO2%2BjTvlkMoz%2B74oPgEJZH1waTI
p829
sS'deviceid'
p830
S'e049562502524808'
p831
sS'wxsid'
p832
VsCaQbzMR04glJ+qG
p833
sS'InviteStartCount'
p834
I40
sS'fileUrl'
p835
S'https://file.wx2.qq.com/cgi-bin/mmwebwx-bin'
p836
sS'BaseRequest'
p837
(dp838
g54
g823
sS'Skey'
p839
g821
sS'DeviceID'
p840
g829
sS'Sid'
p841
g833
ssS'User'
p842
g34
(g38
g39
(dp843
g41
g31
sg42
g43
sg44
g43
sg45
I0
sg47
g50
sg51
g52
sg53
g52
sg77
I0
sg55
I0
sg56
I0
sg57
g43
sg58
g43
sg59
g52
sg60
g52
sg61
I0
sg62
I0
sg63
I1
sg64
g43
sg65
I0
sg68
I0
sg66
I0
sg67
I0
sg46
I0
sg69
g43
sg70
g52
sg71
I0
sg72
g73
sg74
g52
sg75
g76
sg54
I3413407412
sg78
I0
sg79
I0
stp844
Rp845
I1
bss.